(dp0
I12196
(lp1
(lp2
(F39.990111
F116.330251
tp3
a(F39.990301
F116.339161
tp4
aa(lp5
(F39.990111
F116.330251
tp6
a(F39.991104
F116.343872
tp7
aa(lp8
(F39.990111
F116.330251
tp9
a(F40.010696
F116.338602
tp10
aa(lp11
(F39.975028
F116.311556
tp12
a(F40.008801
F116.267881
tp13
aa(lp14
(F39.884931
F116.672281
tp15
a(F39.886901
F116.675301
tp16
aa(lp17
(F39.884931
F116.672281
tp18
a(F39.983333
F116.309944
tp19
aa(lp20
(F39.990311
F116.351102
tp21
a(F39.990301
F116.339161
tp22
aa(lp23
(F39.990311
F116.351102
tp24
a(F39.991104
F116.343872
tp25
aa(lp26
(F39.990311
F116.351102
tp27
a(F39.886901
F116.675301
tp28
aa(lp29
(F39.990311
F116.351102
tp30
a(F39.990531
F116.363311
tp31
aa(lp32
(F39.990311
F116.351102
tp33
a(F39.989352
F116.356064
tp34
aa(lp35
(F39.990311
F116.351102
tp36
a(F40.000241
F116.352881
tp37
aa(lp38
(F40.017402
F116.305637
tp39
a(F40.020209
F116.302722
tp40
aa(lp41
(F39.920349
F116.327869
tp42
a(F39.979381
F116.308711
tp43
aa(lp44
(F39.920349
F116.327869
tp45
a(F39.905001
F116.342225
tp46
aa(lp47
(F39.920349
F116.327869
tp48
a(F39.977181
F116.308881
tp49
aa(lp50
(F39.988501
F116.318872
tp51
a(F39.984811
F116.315931
tp52
aa(lp53
(F39.988501
F116.318872
tp54
a(F39.981691
F116.332721
tp55
aa(lp56
(F39.988501
F116.318872
tp57
a(F39.983061
F116.319341
tp58
aa(lp59
(F39.988501
F116.318872
tp60
a(F39.978994
F116.329721
tp61
aa(lp62
(F39.763371011
F116.322339649
tp63
a(F39.977181
F116.308881
tp64
aa(lp65
(F39.994141
F116.405721
tp66
a(F39.977237
F116.308991
tp67
aa(lp68
(F40.050083
F116.298417
tp69
a(F40.017394
F116.325471
tp70
aa(lp71
(F40.050083
F116.298417
tp72
a(F39.980345
F116.370601
tp73
aa(lp74
(F40.050083
F116.298417
tp75
a(F40.010696
F116.338602
tp76
aa(lp77
(F39.984811
F116.315931
tp78
a(F39.983061
F116.319341
tp79
aa(lp80
(F39.984811
F116.315931
tp81
a(F39.978994
F116.329721
tp82
aa(lp83
(F39.978994
F116.329721
tp84
a(F39.990301
F116.339161
tp85
aa(lp86
(F39.978994
F116.329721
tp87
a(F39.981691
F116.332721
tp88
aa(lp89
(F39.978994
F116.329721
tp90
a(F39.983061
F116.319341
tp91
aa(lp92
(F39.978994
F116.329721
tp93
a(F39.989352
F116.356064
tp94
aa(lp95
(F39.981691
F116.332721
tp96
a(F39.990301
F116.339161
tp97
aa(lp98
(F39.981691
F116.332721
tp99
a(F40.017394
F116.325471
tp100
aa(lp101
(F39.983118
F116.310884
tp102
a(F39.983464
F116.308398
tp103
aa(lp104
(F39.983464
F116.308398
tp105
a(F39.983471
F116.308391
tp106
aa(lp107
(F39.983464
F116.308398
tp108
a(F39.983056
F116.309167
tp109
aa(lp110
(F40.017394
F116.325471
tp111
a(F39.990301
F116.339161
tp112
aa(lp113
(F40.017394
F116.325471
tp114
a(F40.008171
F116.328254
tp115
aa(lp116
(F40.017394
F116.325471
tp117
a(F40.010696
F116.338602
tp118
aa(lp119
(F39.977181
F116.308881
tp120
a(F39.977237
F116.308991
tp121
aa(lp122
(F39.977181
F116.308881
tp123
a(F39.981928
F116.308731
tp124
aa(lp125
(F39.592431
F116.183104
tp126
a(F39.983333
F116.309944
tp127
aa(lp128
(F39.983056
F116.309167
tp129
a(F39.983333
F116.309944
tp130
aa(lp131
(F40.000241
F116.352881
tp132
a(F39.990301
F116.339161
tp133
aa(lp134
(F40.000241
F116.352881
tp135
a(F39.990531
F116.363311
tp136
aa(lp137
(F40.000241
F116.352881
tp138
a(F39.991104
F116.343872
tp139
aa(lp140
(F40.000241
F116.352881
tp141
a(F40.010696
F116.338602
tp142
aa(lp143
(F39.975395
F116.313438
tp144
a(F39.977237
F116.308991
tp145
aa(lp146
(F39.979381
F116.308711
tp147
a(F39.905001
F116.342225
tp148
aa(lp149
(F39.990301
F116.339161
tp150
a(F39.991104
F116.343872
tp151
aa(lp152
(F39.991541
F116.319551
tp153
a(F39.983333
F116.309944
tp154
aa(lp155
(F40.008171
F116.328254
tp156
a(F40.010696
F116.338602
tp157
aa(lp158
(F39.981928
F116.308731
tp159
a(F39.977147
F116.304633
tp160
aa(lp161
(F40.008801
F116.267881
tp162
a(F40.006201
F116.279001
tp163
aa(lp164
(F39.978871
F116.306551
tp165
a(F39.977147
F116.304633
tp166
aa(lp167
(F39.977237
F116.308991
tp168
a(F39.983333
F116.309944
tp169
aa(lp170
(F39.981862
F116.317841
tp171
a(F39.983061
F116.319341
tp172
aa(lp173
(F39.990531
F116.363311
tp174
a(F39.989352
F116.356064
tp175
aasI12261
(lp176
(lp177
(F40.200491
F116.179253
tp178
a(F40.183415
F116.161574
tp179
aa(lp180
(F40.200491
F116.179253
tp181
a(F40.183997
F116.191357
tp182
aa(lp183
(F40.200491
F116.179253
tp184
a(F40.218981
F116.230971
tp185
aa(lp186
(F40.226655
F116.226144
tp187
a(F40.145755
F116.302861
tp188
aa(lp189
(F40.226655
F116.226144
tp190
a(F40.210773
F116.239262
tp191
aa(lp192
(F40.226655
F116.226144
tp193
a(F40.222097
F116.220571
tp194
aa(lp195
(F40.226655
F116.226144
tp196
a(F40.218981
F116.230971
tp197
aa(lp198
(F40.226655
F116.226144
tp199
a(F40.213888
F116.221534
tp200
aa(lp201
(F40.226655
F116.226144
tp202
a(F40.213869
F116.234626
tp203
aa(lp204
(F40.055072
F116.313491
tp205
a(F40.076948
F116.302963
tp206
aa(lp207
(F40.055072
F116.313491
tp208
a(F40.098774
F116.302953
tp209
aa(lp210
(F40.171594
F116.244031
tp211
a(F40.210773
F116.239262
tp212
aa(lp213
(F40.171594
F116.244031
tp214
a(F40.183997
F116.191357
tp215
aa(lp216
(F40.100662
F116.276404
tp217
a(F40.098981
F116.285883
tp218
aa(lp219
(F40.100662
F116.276404
tp220
a(F40.096239
F116.272141
tp221
aa(lp222
(F40.100662
F116.276404
tp223
a(F40.112621
F116.289151
tp224
aa(lp225
(F40.100662
F116.276404
tp226
a(F40.095381
F116.283131
tp227
aa(lp228
(F40.100662
F116.276404
tp229
a(F40.106016
F116.276689
tp230
aa(lp231
(F40.100662
F116.276404
tp232
a(F40.103275
F116.284444
tp233
aa(lp234
(F40.216718
F116.216522
tp235
a(F39.792501
F116.486851
tp236
aa(lp237
(F40.216718
F116.216522
tp238
a(F40.213888
F116.221534
tp239
aa(lp240
(F40.216718
F116.216522
tp241
a(F40.212898
F116.228058
tp242
aa(lp243
(F40.216718
F116.216522
tp244
a(F40.218981
F116.230971
tp245
aa(lp246
(F40.029814
F116.317095
tp247
a(F40.034031
F116.319871
tp248
aa(lp249
(F40.029814
F116.317095
tp250
a(F40.039607
F116.316384
tp251
aa(lp252
(F40.029814
F116.317095
tp253
a(F40.035833
F116.309445
tp254
aa(lp255
(F40.056215
F116.327246
tp256
a(F40.058111
F116.330667
tp257
aa(lp258
(F40.056215
F116.327246
tp259
a(F40.047312
F116.333848
tp260
aa(lp261
(F40.056215
F116.327246
tp262
a(F40.055791
F116.324361
tp263
aa(lp264
(F40.056215
F116.327246
tp265
a(F40.057821
F116.340871
tp266
aa(lp267
(F40.240347
F116.117703
tp268
a(F40.231194
F116.118111
tp269
aa(lp270
(F40.240347
F116.117703
tp271
a(F40.235611
F116.124289
tp272
aa(lp273
(F40.240347
F116.117703
tp274
a(F40.220667
F116.239556
tp275
aa(lp276
(F40.133908
F116.260049
tp277
a(F40.125971
F116.252163
tp278
aa(lp279
(F40.133908
F116.260049
tp280
a(F40.125517
F116.261944
tp281
aa(lp282
(F40.133908
F116.260049
tp283
a(F40.131848
F116.266921
tp284
aa(lp285
(F40.073638
F116.310218
tp286
a(F40.083291
F116.322045
tp287
aa(lp288
(F40.073638
F116.310218
tp289
a(F40.076948
F116.302963
tp290
aa(lp291
(F40.073638
F116.310218
tp292
a(F40.077062
F116.325645
tp293
aa(lp294
(F40.073638
F116.310218
tp295
a(F40.068287
F116.333102
tp296
aa(lp297
(F40.073638
F116.310218
tp298
a(F40.073022
F116.316664
tp299
aa(lp300
(F40.073022
F116.316664
tp301
a(F40.083291
F116.322045
tp302
aa(lp303
(F40.073022
F116.316664
tp304
a(F40.058111
F116.330667
tp305
aa(lp306
(F40.073022
F116.316664
tp307
a(F40.089172
F116.302284
tp308
aa(lp309
(F40.073022
F116.316664
tp310
a(F40.065611
F116.322079
tp311
aa(lp312
(F40.073022
F116.316664
tp313
a(F40.087491
F116.324951
tp314
aa(lp315
(F40.073022
F116.316664
tp316
a(F40.099121
F116.338071
tp317
aa(lp318
(F40.073022
F116.316664
tp319
a(F40.077062
F116.325645
tp320
aa(lp321
(F40.073022
F116.316664
tp322
a(F40.068287
F116.333102
tp323
aa(lp324
(F40.073022
F116.316664
tp325
a(F40.076948
F116.302963
tp326
aa(lp327
(F40.231194
F116.118111
tp328
a(F40.235611
F116.124289
tp329
aa(lp330
(F40.052918
F116.369476
tp331
a(F40.058111
F116.330667
tp332
aa(lp333
(F40.052918
F116.369476
tp334
a(F40.041361
F116.373921
tp335
aa(lp336
(F40.140561
F116.262416
tp337
a(F40.141792
F116.258313
tp338
aa(lp339
(F40.140561
F116.262416
tp340
a(F40.125517
F116.261944
tp341
aa(lp342
(F40.140561
F116.262416
tp343
a(F40.131848
F116.266921
tp344
aa(lp345
(F40.134251
F116.252193
tp346
a(F40.125517
F116.261944
tp347
aa(lp348
(F40.035833
F116.309445
tp349
a(F40.058111
F116.330667
tp350
aa(lp351
(F40.035833
F116.309445
tp352
a(F40.043501
F116.298251
tp353
aa(lp354
(F40.035833
F116.309445
tp355
a(F40.034978
F116.306693
tp356
aa(lp357
(F40.035833
F116.309445
tp358
a(F40.062711
F116.295361
tp359
aa(lp360
(F40.035833
F116.309445
tp361
a(F40.039607
F116.316384
tp362
aa(lp363
(F40.035833
F116.309445
tp364
a(F40.034031
F116.319871
tp365
aa(lp366
(F40.206013
F116.223627
tp367
a(F40.209889
F116.228222
tp368
aa(lp369
(F40.206013
F116.223627
tp370
a(F40.213888
F116.221534
tp371
aa(lp372
(F40.076948
F116.302963
tp373
a(F40.083291
F116.322045
tp374
aa(lp375
(F40.076948
F116.302963
tp376
a(F40.089172
F116.302284
tp377
aa(lp378
(F40.076948
F116.302963
tp379
a(F40.087389
F116.300231
tp380
aa(lp381
(F40.076948
F116.302963
tp382
a(F40.043761
F116.285851
tp383
aa(lp384
(F40.076948
F116.302963
tp385
a(F40.098774
F116.302953
tp386
aa(lp387
(F40.076948
F116.302963
tp388
a(F40.087491
F116.324951
tp389
aa(lp390
(F40.076948
F116.302963
tp391
a(F40.099121
F116.338071
tp392
aa(lp393
(F40.076948
F116.302963
tp394
a(F40.077062
F116.325645
tp395
aa(lp396
(F40.076948
F116.302963
tp397
a(F40.069228
F116.299637
tp398
aa(lp399
(F40.112621
F116.289151
tp400
a(F40.125517
F116.261944
tp401
aa(lp402
(F40.112621
F116.289151
tp403
a(F40.118531
F116.267087
tp404
aa(lp405
(F40.112621
F116.289151
tp406
a(F40.131848
F116.266921
tp407
aa(lp408
(F40.038109
F116.323645
tp409
a(F40.039607
F116.316384
tp410
aa(lp411
(F40.118531
F116.267087
tp412
a(F40.120147
F116.254641
tp413
aa(lp414
(F40.118531
F116.267087
tp415
a(F40.131848
F116.266921
tp416
aa(lp417
(F40.118531
F116.267087
tp418
a(F40.106016
F116.276689
tp419
aa(lp420
(F40.118531
F116.267087
tp421
a(F40.125517
F116.261944
tp422
aa(lp423
(F40.118531
F116.267087
tp424
a(F40.218981
F116.230971
tp425
aa(lp426
(F40.118531
F116.267087
tp427
a(F40.125971
F116.252163
tp428
aa(lp429
(F40.034261
F116.358151
tp430
a(F40.040439
F116.349094
tp431
aa(lp432
(F40.145939
F116.252157
tp433
a(F40.125517
F116.261944
tp434
aa(lp435
(F40.145939
F116.252157
tp436
a(F40.218981
F116.230971
tp437
aa(lp438
(F40.081833
F116.294194
tp439
a(F40.098774
F116.302953
tp440
aa(lp441
(F40.081833
F116.294194
tp442
a(F40.235611
F116.124289
tp443
aa(lp444
(F40.081833
F116.294194
tp445
a(F40.089172
F116.302284
tp446
aa(lp447
(F40.043501
F116.298251
tp448
a(F40.043761
F116.285851
tp449
aa(lp450
(F40.043501
F116.298251
tp451
a(F40.055121
F116.307781
tp452
aa(lp453
(F40.043501
F116.298251
tp454
a(F40.034579
F116.288291
tp455
aa(lp456
(F40.043501
F116.298251
tp457
a(F40.034031
F116.319871
tp458
aa(lp459
(F40.125517
F116.261944
tp460
a(F40.209278
F116.216359
tp461
aa(lp462
(F40.125517
F116.261944
tp463
a(F40.213888
F116.221534
tp464
aa(lp465
(F40.125517
F116.261944
tp466
a(F40.131848
F116.266921
tp467
aa(lp468
(F40.125517
F116.261944
tp469
a(F40.120147
F116.254641
tp470
aa(lp471
(F40.125517
F116.261944
tp472
a(F40.152972
F116.298361
tp473
aa(lp474
(F40.125517
F116.261944
tp475
a(F40.141792
F116.258313
tp476
aa(lp477
(F40.125517
F116.261944
tp478
a(F40.103275
F116.284444
tp479
aa(lp480
(F40.108971
F116.268313
tp481
a(F40.106016
F116.276689
tp482
aa(lp483
(F40.213869
F116.234626
tp484
a(F40.215364
F116.240961
tp485
aa(lp486
(F40.213869
F116.234626
tp487
a(F40.210773
F116.239262
tp488
aa(lp489
(F40.213869
F116.234626
tp490
a(F40.211233
F116.239117
tp491
aa(lp492
(F40.213869
F116.234626
tp493
a(F40.212442
F116.246563
tp494
aa(lp495
(F40.213869
F116.234626
tp496
a(F40.209278
F116.216359
tp497
aa(lp498
(F40.213869
F116.234626
tp499
a(F40.216783
F116.256904
tp500
aa(lp501
(F40.213869
F116.234626
tp502
a(F40.209889
F116.228222
tp503
aa(lp504
(F40.213869
F116.234626
tp505
a(F40.220667
F116.239556
tp506
aa(lp507
(F40.213869
F116.234626
tp508
a(F40.212647
F116.251881
tp509
aa(lp510
(F40.213869
F116.234626
tp511
a(F40.213888
F116.221534
tp512
aa(lp513
(F40.213869
F116.234626
tp514
a(F40.218981
F116.230971
tp515
aa(lp516
(F40.213869
F116.234626
tp517
a(F40.212898
F116.228058
tp518
aa(lp519
(F40.213869
F116.234626
tp520
a(F40.183412
F116.232075
tp521
aa(lp522
(F40.213869
F116.234626
tp523
a(F40.214867
F116.247008
tp524
aa(lp525
(F40.212898
F116.228058
tp526
a(F40.210773
F116.239262
tp527
aa(lp528
(F40.212898
F116.228058
tp529
a(F40.211233
F116.239117
tp530
aa(lp531
(F40.212898
F116.228058
tp532
a(F40.213888
F116.221534
tp533
aa(lp534
(F40.212898
F116.228058
tp535
a(F40.209889
F116.228222
tp536
aa(lp537
(F40.212898
F116.228058
tp538
a(F40.220667
F116.239556
tp539
aa(lp540
(F40.212898
F116.228058
tp541
a(F40.218981
F116.230971
tp542
aa(lp543
(F40.212647
F116.251881
tp544
a(F40.214867
F116.247008
tp545
aa(lp546
(F40.212647
F116.251881
tp547
a(F40.210773
F116.239262
tp548
aa(lp549
(F40.212647
F116.251881
tp550
a(F40.212442
F116.246563
tp551
aa(lp552
(F40.212647
F116.251881
tp553
a(F40.216783
F116.256904
tp554
aa(lp555
(F39.787638
F116.493917
tp556
a(F39.790501
F116.483001
tp557
aa(lp558
(F39.787638
F116.493917
tp559
a(F39.787601
F116.493901
tp560
aa(lp561
(F39.787638
F116.493917
tp562
a(F39.790141
F116.482981
tp563
aa(lp564
(F39.787638
F116.493917
tp565
a(F40.187917
F117.153667
tp566
aa(lp567
(F39.787638
F116.493917
tp568
a(F39.792501
F116.486851
tp569
aa(lp570
(F40.033701
F116.330251
tp571
a(F40.039222
F116.339751
tp572
aa(lp573
(F40.039607
F116.316384
tp574
a(F40.034978
F116.306693
tp575
aa(lp576
(F40.039607
F116.316384
tp577
a(F40.034031
F116.319871
tp578
aa(lp579
(F40.039607
F116.316384
tp580
a(F40.041002
F116.315417
tp581
aa(lp582
(F40.034031
F116.319871
tp583
a(F40.034978
F116.306693
tp584
aa(lp585
(F40.034031
F116.319871
tp586
a(F40.034579
F116.288291
tp587
aa(lp588
(F40.040439
F116.349094
tp589
a(F40.058111
F116.330667
tp590
aa(lp591
(F40.040439
F116.349094
tp592
a(F40.041361
F116.373921
tp593
aa(lp594
(F40.154301
F116.250241
tp595
a(F40.156415
F116.244773
tp596
aa(lp597
(F40.154301
F116.250241
tp598
a(F40.158691
F116.266905
tp599
aa(lp600
(F40.034579
F116.288291
tp601
a(F40.034978
F116.306693
tp602
aa(lp603
(F40.103275
F116.284444
tp604
a(F40.106016
F116.276689
tp605
aa(lp606
(F40.103275
F116.284444
tp607
a(F40.098981
F116.285883
tp608
aa(lp609
(F40.083291
F116.322045
tp610
a(F40.089172
F116.302284
tp611
aa(lp612
(F40.083291
F116.322045
tp613
a(F40.098774
F116.302953
tp614
aa(lp615
(F40.083291
F116.322045
tp616
a(F40.087491
F116.324951
tp617
aa(lp618
(F40.083291
F116.322045
tp619
a(F40.099121
F116.338071
tp620
aa(lp621
(F40.083291
F116.322045
tp622
a(F40.077062
F116.325645
tp623
aa(lp624
(F40.083291
F116.322045
tp625
a(F40.068287
F116.333102
tp626
aa(lp627
(F40.083291
F116.322045
tp628
a(F40.081066
F116.342998
tp629
aa(lp630
(F40.083291
F116.322045
tp631
a(F40.084444
F116.331417
tp632
aa(lp633
(F40.087389
F116.300231
tp634
a(F40.089172
F116.302284
tp635
aa(lp636
(F40.156415
F116.244773
tp637
a(F40.197801
F116.222841
tp638
aa(lp639
(F40.156415
F116.244773
tp640
a(F40.158691
F116.266905
tp641
aa(lp642
(F40.150118
F116.264351
tp643
a(F40.146371
F116.273861
tp644
aa(lp645
(F40.218981
F116.230971
tp646
a(F40.210773
F116.239262
tp647
aa(lp648
(F40.218981
F116.230971
tp649
a(F40.212442
F116.246563
tp650
aa(lp651
(F40.218981
F116.230971
tp652
a(F40.197801
F116.222841
tp653
aa(lp654
(F40.218981
F116.230971
tp655
a(F40.222097
F116.220571
tp656
aa(lp657
(F40.218981
F116.230971
tp658
a(F40.209889
F116.228222
tp659
aa(lp660
(F40.218981
F116.230971
tp661
a(F40.220667
F116.239556
tp662
aa(lp663
(F40.218981
F116.230971
tp664
a(F40.213888
F116.221534
tp665
aa(lp666
(F40.218981
F116.230971
tp667
a(F40.152972
F116.298361
tp668
aa(lp669
(F40.084444
F116.331417
tp670
a(F40.087491
F116.324951
tp671
aa(lp672
(F40.084444
F116.331417
tp673
a(F40.099121
F116.338071
tp674
aa(lp675
(F40.084444
F116.331417
tp676
a(F40.068287
F116.333102
tp677
aa(lp678
(F40.084444
F116.331417
tp679
a(F40.081066
F116.342998
tp680
aa(lp681
(F40.084444
F116.331417
tp682
a(F40.152972
F116.298361
tp683
aa(lp684
(F40.461806
F115.968917
tp685
a(F40.462333
F115.980861
tp686
aa(lp687
(F40.461806
F115.968917
tp688
a(F40.464911
F115.992917
tp689
aa(lp690
(F40.461806
F115.968917
tp691
a(F40.463311
F115.970806
tp692
aa(lp693
(F40.055791
F116.324361
tp694
a(F40.058111
F116.330667
tp695
aa(lp696
(F40.055791
F116.324361
tp697
a(F40.065611
F116.322079
tp698
aa(lp699
(F39.790501
F116.483001
tp700
a(F39.790141
F116.482981
tp701
aa(lp702
(F39.790501
F116.483001
tp703
a(F40.187917
F117.153667
tp704
aa(lp705
(F39.790501
F116.483001
tp706
a(F39.792501
F116.486851
tp707
aa(lp708
(F40.209889
F116.228222
tp709
a(F40.210773
F116.239262
tp710
aa(lp711
(F40.209889
F116.228222
tp712
a(F40.211233
F116.239117
tp713
aa(lp714
(F40.209889
F116.228222
tp715
a(F40.222097
F116.220571
tp716
aa(lp717
(F40.209889
F116.228222
tp718
a(F40.220667
F116.239556
tp719
aa(lp720
(F40.220667
F116.239556
tp721
a(F40.215364
F116.240961
tp722
aa(lp723
(F40.220667
F116.239556
tp724
a(F40.210773
F116.239262
tp725
aa(lp726
(F40.220667
F116.239556
tp727
a(F40.222097
F116.220571
tp728
aa(lp729
(F40.220667
F116.239556
tp730
a(F40.167991
F116.314012
tp731
aa(lp732
(F40.220667
F116.239556
tp733
a(F40.223035
F116.276701
tp734
aa(lp735
(F40.462333
F115.980861
tp736
a(F40.463311
F115.970806
tp737
aa(lp738
(F40.095381
F116.283131
tp739
a(F40.106016
F116.276689
tp740
aa(lp741
(F40.095381
F116.283131
tp742
a(F40.098981
F116.285883
tp743
aa(lp744
(F40.095381
F116.283131
tp745
a(F40.089172
F116.302284
tp746
aa(lp747
(F40.210773
F116.239262
tp748
a(F40.215364
F116.240961
tp749
aa(lp750
(F40.210773
F116.239262
tp751
a(F40.222097
F116.220571
tp752
aa(lp753
(F40.210773
F116.239262
tp754
a(F40.211233
F116.239117
tp755
aa(lp756
(F40.210773
F116.239262
tp757
a(F40.212442
F116.246563
tp758
aa(lp759
(F40.210773
F116.239262
tp760
a(F40.214867
F116.247008
tp761
aa(lp762
(F40.211233
F116.239117
tp763
a(F40.212442
F116.246563
tp764
aa(lp765
(F40.212442
F116.246563
tp766
a(F40.215364
F116.240961
tp767
aa(lp768
(F40.212442
F116.246563
tp769
a(F40.214867
F116.247008
tp770
aa(lp771
(F40.212442
F116.246563
tp772
a(F40.222097
F116.220571
tp773
aa(lp774
(F40.212442
F116.246563
tp775
a(F40.216783
F116.256904
tp776
aa(lp777
(F40.222097
F116.220571
tp778
a(F40.145755
F116.302861
tp779
aa(lp780
(F40.222097
F116.220571
tp781
a(F40.213888
F116.221534
tp782
aa(lp783
(F40.222097
F116.220571
tp784
a(F40.220905
F116.213595
tp785
aa(lp786
(F40.120147
F116.254641
tp787
a(F40.125971
F116.252163
tp788
aa(lp789
(F40.120147
F116.254641
tp790
a(F40.131848
F116.266921
tp791
aa(lp792
(F40.125971
F116.252163
tp793
a(F40.131848
F116.266921
tp794
aa(lp795
(F40.216801
F116.203957
tp796
a(F40.183415
F116.161574
tp797
aa(lp798
(F40.220905
F116.213595
tp799
a(F40.235611
F116.124289
tp800
aa(lp801
(F40.220905
F116.213595
tp802
a(F40.213888
F116.221534
tp803
aa(lp804
(F40.170417
F116.269783
tp805
a(F40.141792
F116.258313
tp806
aa(lp807
(F40.170417
F116.269783
tp808
a(F40.158691
F116.266905
tp809
aa(lp810
(F40.065611
F116.322079
tp811
a(F40.058111
F116.330667
tp812
aa(lp813
(F40.065611
F116.322079
tp814
a(F40.055121
F116.307781
tp815
aa(lp816
(F40.065611
F116.322079
tp817
a(F40.052505
F116.173674
tp818
aa(lp819
(F40.065611
F116.322079
tp820
a(F40.068287
F116.333102
tp821
aa(lp822
(F40.065611
F116.322079
tp823
a(F40.051301
F116.311001
tp824
aa(lp825
(F40.197801
F116.222841
tp826
a(F40.209278
F116.216359
tp827
aa(lp828
(F40.131848
F116.266921
tp829
a(F40.145014
F116.293074
tp830
aa(lp831
(F40.131848
F116.266921
tp832
a(F40.146371
F116.273861
tp833
aa(lp834
(F40.145014
F116.293074
tp835
a(F40.145755
F116.302861
tp836
aa(lp837
(F40.145014
F116.293074
tp838
a(F40.152972
F116.298361
tp839
aa(lp840
(F40.145014
F116.293074
tp841
a(F40.146371
F116.273861
tp842
aa(lp843
(F40.152972
F116.298361
tp844
a(F40.145755
F116.302861
tp845
aa(lp846
(F40.152972
F116.298361
tp847
a(F40.167991
F116.314012
tp848
aa(lp849
(F40.152972
F116.298361
tp850
a(F40.141792
F116.258313
tp851
aa(lp852
(F40.043761
F116.285851
tp853
a(F40.051301
F116.311001
tp854
aa(lp855
(F40.047312
F116.333848
tp856
a(F40.058111
F116.330667
tp857
aa(lp858
(F40.047312
F116.333848
tp859
a(F40.052505
F116.173674
tp860
aa(lp861
(F40.098774
F116.302953
tp862
a(F40.098981
F116.285883
tp863
aa(lp864
(F40.122783
F116.319914
tp865
a(F40.099121
F116.338071
tp866
aa(lp867
(F40.122783
F116.319914
tp868
a(F40.106016
F116.276689
tp869
aa(lp870
(F40.122783
F116.319914
tp871
a(F40.136843
F116.314051
tp872
aa(lp873
(F40.087491
F116.324951
tp874
a(F40.089172
F116.302284
tp875
aa(lp876
(F40.087491
F116.324951
tp877
a(F40.099121
F116.338071
tp878
aa(lp879
(F40.087491
F116.324951
tp880
a(F40.077062
F116.325645
tp881
aa(lp882
(F40.087491
F116.324951
tp883
a(F40.081066
F116.342998
tp884
aa(lp885
(F40.081066
F116.342998
tp886
a(F40.099121
F116.338071
tp887
aa(lp888
(F40.106016
F116.276689
tp889
a(F40.098981
F116.285883
tp890
aa(lp891
(F40.062711
F116.295361
tp892
a(F39.898054
F116.219284
tp893
aa(lp894
(F40.062711
F116.295361
tp895
a(F40.052505
F116.173674
tp896
aa(lp897
(F40.062711
F116.295361
tp898
a(F40.068287
F116.333102
tp899
aa(lp900
(F40.062711
F116.295361
tp901
a(F40.096239
F116.272141
tp902
aa(lp903
(F40.032181
F116.340731
tp904
a(F39.790141
F116.482981
tp905
aa(lp906
(F40.032181
F116.340731
tp907
a(F40.034231
F116.327471
tp908
aa(lp909
(F40.032181
F116.340731
tp910
a(F40.039222
F116.339751
tp911
aa(lp912
(F40.052505
F116.173674
tp913
a(F40.034978
F116.306693
tp914
aa(lp915
(F40.052505
F116.173674
tp916
a(F40.069228
F116.299637
tp917
aa(lp918
(F40.052505
F116.173674
tp919
a(F40.051301
F116.311001
tp920
aa(lp921
(F39.790141
F116.482981
tp922
a(F40.187917
F117.153667
tp923
aa(lp924
(F40.214867
F116.247008
tp925
a(F40.215364
F116.240961
tp926
aa(lp927
(F40.168968
F116.311797
tp928
a(F40.167991
F116.314012
tp929
aa(lp930
(F40.096239
F116.272141
tp931
a(F40.158691
F116.266905
tp932
aa(lp933
(F40.077062
F116.325645
tp934
a(F40.099121
F116.338071
tp935
aa(lp936
(F40.077062
F116.325645
tp937
a(F40.068287
F116.333102
tp938
aa(lp939
(F39.787601
F116.493901
tp940
a(F39.792501
F116.486851
tp941
aa(lp942
(F40.051301
F116.311001
tp943
a(F40.055121
F116.307781
tp944
aa(lp945
(F40.051301
F116.311001
tp946
a(F40.034978
F116.306693
tp947
aa(lp948
(F40.034978
F116.306693
tp949
a(F40.022108
F116.307999
tp950
aa(lp951
(F40.066778
F116.342167
tp952
a(F40.066421
F116.341311
tp953
aa(lp954
(F40.066778
F116.342167
tp955
a(F40.068287
F116.333102
tp956
aa(lp957
(F40.069228
F116.299637
tp958
a(F40.068287
F116.333102
tp959
aa(lp960
(F39.947101
F116.309841
tp961
a(F40.089172
F116.302284
tp962
aa(lp963
(F40.464911
F115.992917
tp964
a(F40.447056
F115.968972
tp965
aa(lp966
(F40.136843
F116.314051
tp967
a(F40.145755
F116.302861
tp968
aa(lp969
(F40.136843
F116.314051
tp970
a(F40.167991
F116.314012
tp971
aa(lp972
(F40.146371
F116.273861
tp973
a(F40.089172
F116.302284
tp974
aa(lp975
(F40.145755
F116.302861
tp976
a(F40.167991
F116.314012
tp977
aa(lp978
(F40.209278
F116.216359
tp979
a(F40.213888
F116.221534
tp980
aa(lp981
(F40.068287
F116.333102
tp982
a(F40.058111
F116.330667
tp983
aa(lp984
(F40.057821
F116.340871
tp985
a(F40.058111
F116.330667
tp986
aa(lp987
(F40.167991
F116.314012
tp988
a(F40.166291
F116.343241
tp989
aasI12285
(lp990
(lp991
(F39.923121
F116.515441
tp992
a(F39.915401
F116.556331
tp993
aa(lp994
(F39.923121
F116.515441
tp995
a(F39.921471
F116.399411
tp996
aa(lp997
(F39.923121
F116.515441
tp998
a(F39.910051
F116.514661
tp999
aa(lp1000
(F39.923121
F116.515441
tp1001
a(F39.918611
F116.507181
tp1002
aa(lp1003
(F39.923121
F116.515441
tp1004
a(F39.920111
F116.546667
tp1005
aa(lp1006
(F39.923121
F116.515441
tp1007
a(F39.926101
F116.528501
tp1008
aa(lp1009
(F40.005278
F116.223278
tp1010
a(F39.912491
F116.533221
tp1011
aa(lp1012
(F39.938245
F116.570841
tp1013
a(F39.920071
F116.536031
tp1014
aa(lp1015
(F39.917778
F116.555001
tp1016
a(F39.920111
F116.546667
tp1017
aa(lp1018
(F39.918611
F116.507181
tp1019
a(F39.921181
F116.494821
tp1020
aa(lp1021
(F39.916032
F116.529796
tp1022
a(F39.912491
F116.533221
tp1023
aa(lp1024
(F39.921181
F116.494821
tp1025
a(F39.920071
F116.536031
tp1026
aa(lp1027
(F39.918681
F116.507301
tp1028
a(F39.925291
F116.472391
tp1029
aa(lp1030
(F39.910051
F116.514661
tp1031
a(F39.912917
F116.518306
tp1032
aa(lp1033
(F39.916191
F116.528441
tp1034
a(F39.917275
F116.524194
tp1035
aa(lp1036
(F39.916191
F116.528441
tp1037
a(F39.912101
F116.354001
tp1038
aa(lp1039
(F39.916191
F116.528441
tp1040
a(F39.918461
F116.523139
tp1041
aa(lp1042
(F39.911641
F116.547851
tp1043
a(F39.920071
F116.536031
tp1044
aa(lp1045
(F39.911641
F116.547851
tp1046
a(F39.915401
F116.556331
tp1047
aa(lp1048
(F39.887901
F116.331001
tp1049
a(F39.920071
F116.536031
tp1050
aa(lp1051
(F39.887901
F116.331001
tp1052
a(F40.039091
F116.305781
tp1053
aa(lp1054
(F39.907611
F116.572151
tp1055
a(F39.920071
F116.536031
tp1056
aa(lp1057
(F39.857296
F116.078922
tp1058
a(F39.920071
F116.536031
tp1059
aa(lp1060
(F39.857296
F116.078922
tp1061
a(F39.915401
F116.556331
tp1062
aa(lp1063
(F39.920071
F116.536031
tp1064
a(F39.909691
F116.591661
tp1065
aa(lp1066
(F39.920071
F116.536031
tp1067
a(F39.912491
F116.533221
tp1068
aa(lp1069
(F39.920071
F116.536031
tp1070
a(F39.915401
F116.556331
tp1071
aa(lp1072
(F39.920071
F116.536031
tp1073
a(F39.976213
F116.573121
tp1074
aa(lp1075
(F39.920071
F116.536031
tp1076
a(F39.908941
F116.525101
tp1077
aa(lp1078
(F39.920071
F116.536031
tp1079
a(F40.008061
F116.448869
tp1080
aa(lp1081
(F39.920071
F116.536031
tp1082
a(F39.837781
F116.389081
tp1083
aa(lp1084
(F39.920071
F116.536031
tp1085
a(F39.926101
F116.528501
tp1086
aa(lp1087
(F39.865821
F116.488651
tp1088
a(F39.912491
F116.533221
tp1089
aa(lp1090
(F40.129231
F117.106491
tp1091
a(F39.892091
F116.392511
tp1092
aa(lp1093
(F39.920111
F116.546667
tp1094
a(F39.915401
F116.556331
tp1095
aa(lp1096
(F39.912101
F116.354001
tp1097
a(F39.912491
F116.533221
tp1098
aa(lp1099
(F39.912491
F116.533221
tp1100
a(F39.908941
F116.525101
tp1101
aa(lp1102
(F39.912491
F116.533221
tp1103
a(F40.039091
F116.305781
tp1104
aa(lp1105
(F39.912491
F116.533221
tp1106
a(F39.915401
F116.556331
tp1107
aa(lp1108
(F39.912491
F116.533221
tp1109
a(F39.913461
F116.430731
tp1110
aa(lp1111
(F39.915401
F116.556331
tp1112
a(F39.920889
F116.557278
tp1113
aa(lp1114
(F39.915401
F116.556331
tp1115
a(F39.908941
F116.525101
tp1116
aas.