ccollections
defaultdict
p0
(c__builtin__
dict
p1
tp2
Rp3
I12296
(dp4
I2816
(F39.843633
F116.255142
tp5
sI8834
(F39.875275
F116.659761
tp6
sI5123
(F39.909861
F116.637702
tp7
sI3077
(F39.898056
F116.629251
tp8
sI5383
(F39.915661
F116.587311
tp9
sI12296
(F39.945621
F116.364858
tp10
sI748
(F39.856044
F116.692565
tp11
sI9227
(F39.936806
F116.756167
tp12
sI1399
(F39.900571
F116.633721
tp13
sI525
(F39.900801
F116.442841
tp14
sI1423
(F39.904805
F116.575444
tp15
sI856
(F39.874081
F116.674191
tp16
sI2579
(F39.898806
F116.642222
tp17
sI2708
(F39.889444
F116.601111
tp18
sI7318
(F39.890641
F116.678811
tp19
sI4761
(F39.878081
F116.638051
tp20
sI10139
(F39.909083
F116.475972
tp21
sI7452
(F39.911417
F116.625167
tp22
sI7712
(F39.901053
F116.639358
tp23
sI2723
(F39.773221
F116.255261
tp24
sI5159
(F39.909701
F116.662401
tp25
sI3242
(F39.885889
F116.629444
tp26
sI2731
(F39.883951
F116.636686
tp27
sI2732
(F39.888889
F116.637222
tp28
sI9389
(F39.891987
F116.496655
tp29
sI942
(F39.906056
F116.653251
tp30
sI943
(F39.905853
F116.645399
tp31
sI5169
(F39.899751
F116.577833
tp32
sI2976
(F39.915254
F116.558174
tp33
sI52
(F39.904031
F116.668941
tp34
sI2228
(F39.918611
F116.593639
tp35
sI4154
(F39.881806
F116.682639
tp36
sI8251
(F39.713193
F116.789858
tp37
sI7229
(F39.741194
F116.798694
tp38
sI2878
(F39.902781
F116.598931
tp39
sI3521
(F39.893251
F116.467558
tp40
sI5835
(F39.871921
F116.689351
tp41
sI1476
(F39.719261
F115.954421
tp42
sI5451
(F39.919472
F116.642611
tp43
sI1004
(F39.726511
F116.324951
tp44
sI1247
(F39.890622
F116.670395
tp45
sI4237
(F39.901306
F116.619278
tp46
sI1234
(F39.907341
F116.593861
tp47
sI5027
(F39.922191
F116.575821
tp48
sI3797
(F40.330706
F116.626088
tp49
sI1368
(F39.849861
F116.694751
tp50
sI2137
(F39.913961
F116.576631
tp51
sI8655
(F39.880569
F116.677516
tp52
sI2955
(F39.906671
F116.457861
tp53
sI7135
(F39.913729
F116.620582
tp54
sI1250
(F39.900944
F116.634306
tp55
sI8894
(F39.905056
F116.508694
tp56
sI9447
(F39.859931
F116.658061
tp57
sI2859
(F39.884139
F116.661806
tp58
sI2922
(F39.908041
F116.630861
tp59
sI4459
(F39.958091
F116.727771
tp60
sI4460
(F39.951757
F116.713812
tp61
sI2929
(F39.907251
F116.663722
tp62
sI2771
(F39.867501
F116.605833
tp63
sI2366
(F39.918221
F116.577741
tp64
sI758
(F39.910944
F116.687806
tp65
sI4471
(F40.332219
F116.626329
tp66
sI1400
(F39.927401
F116.419819
tp67
sI2297
(F39.895871
F116.601101
tp68
sI1402
(F39.894801
F116.627001
tp69
sI6652
(F39.917528
F116.687306
tp70
sI1279
(F39.937806
F116.609361
tp71
ssI12181
(dp72
I5718
(F39.741791
F116.332381
tp73
sI2056
(F39.727702
F116.339238
tp74
sI2057
(F39.740949
F116.326929
tp75
sI50
(F39.755277
F116.300666
tp76
sI6230
(F39.752511
F116.327521
tp77
sI5719
(F39.736791
F116.331151
tp78
sI5225
(F39.809141
F116.333055
tp79
sI112
(F39.757631
F116.384421
tp80
sI10362
(F39.748139
F116.330861
tp81
sI3197
(F39.745777
F116.320583
tp82
sI4241
(F39.738331
F116.309191
tp83
sI5272
(F39.722306
F116.326222
tp84
sI1177
(F39.746011
F116.319857
tp85
sI2204
(F39.728641
F116.334661
tp86
sI2205
(F39.730167
F116.341667
tp87
sI2206
(F39.779111
F116.320861
tp88
sI8863
(F39.730351
F116.332991
tp89
sI163
(F39.767861
F116.338461
tp90
sI5291
(F39.731071
F116.333921
tp91
sI2748
(F39.735853
F116.325108
tp92
sI4801
(F39.675891
F116.312861
tp93
sI6857
(F39.755583
F116.326389
tp94
sI6858
(F39.736311
F116.304111
tp95
sI1740
(F39.721506
F116.324948
tp96
sI1741
(F39.727911
F116.336991
tp97
sI1742
(F39.725191
F116.340601
tp98
sI1743
(F39.726711
F116.331341
tp99
sI2769
(F39.755741
F116.320821
tp100
sI3287
(F39.733306
F116.060861
tp101
sI4313
(F39.788111
F116.310911
tp102
sI1243
(F39.722861
F116.334111
tp103
sI5856
(F39.722621
F116.374051
tp104
sI241
(F39.732773
F116.335288
tp105
sI242
(F39.741251
F116.327028
tp106
sI243
(F39.781421
F116.324021
tp107
sI2812
(F39.731056
F116.329889
tp108
sI3327
(F39.744811
F116.308261
tp109
sI3328
(F39.743194
F116.315138
tp110
sI5890
(F39.751404
F116.332547
tp111
sI5891
(F39.730701
F116.320421
tp112
sI1800
(F39.664661
F116.313511
tp113
sI5420
(F39.791841
F116.355771
tp114
sI1837
(F39.729111
F116.331111
tp115
sI984
(F39.696708
F116.353942
tp116
sI814
(F39.765161
F116.322711
tp117
sI2009
(F39.731611
F116.326472
tp118
sI5403
(F39.735561
F116.325351
tp119
sI4893
(F39.729151
F116.334521
tp120
sI4897
(F39.616601
F116.490911
tp121
sI2339
(F39.726616
F116.328987
tp122
sI811
(F39.742331
F116.324971
tp123
sI812
(F39.746777
F116.326733
tp124
sI813
(F39.752472
F116.327666
tp125
sI1838
(F39.680472
F116.731194
tp126
sI2881
(F39.746411
F116.331678
tp127
sI2882
(F39.767661
F116.315771
tp128
sI3553
(F39.731426
F116.324791
tp129
sI1360
(F39.725977
F116.335288
tp130
sI4958
(F39.782149
F116.334902
tp131
sI4993
(F39.761389
F116.325944
tp132
sI386
(F39.772044
F116.317091
tp133
sI387
(F39.758081
F116.315203
tp134
sI390
(F39.778694
F116.331444
tp135
sI391
(F39.789301
F116.329741
tp136
sI3468
(F39.733627
F116.335725
tp137
sI3469
(F39.735292
F116.333932
tp138
sI1517
(F39.745278
F116.304167
tp139
sI12181
(F39.727261
F116.326111
tp140
sI1468
(F39.730702
F116.320416
tp141
sI1469
(F39.753583
F116.321583
tp142
sI2896
(F39.749199
F116.292299
tp143
sI460
(F39.723521
F116.319571
tp144
sI980
(F39.721511
F116.348771
tp145
sI2008
(F39.736744
F116.331131
tp146
sI985
(F39.750555
F116.336388
tp147
sI2010
(F39.787031
F116.326621
tp148
sI991
(F39.720771
F116.332231
tp149
sI992
(F39.731638
F116.328611
tp150
sI993
(F39.742017
F116.334485
tp151
sI994
(F39.751404
F116.337541
tp152
sI995
(F39.761629
F116.325901
tp153
sI1508
(F39.730833
F116.338457
tp154
sI1509
(F39.729162
F116.352878
tp155
sI4583
(F39.725461
F116.320161
tp156
sI1516
(F39.740141
F116.305341
tp157
sI493
(F39.758126
F116.315034
tp158
sI494
(F39.775567
F116.307171
tp159
sI9725
(F39.443421
F116.974061
tp160
sI2545
(F39.729813
F116.327624
tp161
sI504
(F39.716841
F116.335011
tp162
sI6141
(F39.738321
F116.360991
tp163
ssI12064
(dp164
I512
(F39.854419
F116.407294
tp165
sI3413
(F39.933111
F116.455251
tp166
sI515
(F39.857529
F116.442316
tp167
sI2564
(F39.960556
F116.421667
tp168
sI4613
(F39.892686
F116.450158
tp169
sI518
(F39.876944
F116.441111
tp170
sI2055
(F39.870141
F116.415731
tp171
sI4616
(F39.889981
F116.505922
tp172
sI9
(F39.915261
F116.520951
tp173
sI10
(F39.916551
F116.463981
tp174
sI2059
(F39.857625
F116.493585
tp175
sI526
(F39.869831
F116.436761
tp176
sI941
(F39.890681
F116.434056
tp177
sI13328
(F39.905572
F116.458783
tp178
sI4114
(F39.857878
F116.426911
tp179
sI1043
(F39.870269
F116.450389
tp180
sI2580
(F39.911944
F116.464167
tp181
sI601
(F39.906392
F116.454275
tp182
sI1561
(F39.880111
F116.454551
tp183
sI2587
(F40.009781
F116.482901
tp184
sI3100
(F39.973628
F116.400556
tp185
sI1566
(F39.908781
F116.544692
tp186
sI517
(F39.871051
F116.406511
tp187
sI8048
(F39.870919
F116.453372
tp188
sI2595
(F39.942891
F116.531841
tp189
sI3925
(F39.909639
F116.470028
tp190
sI519
(F39.960809
F116.494632
tp191
sI4140
(F39.913698
F116.457091
tp192
sI45
(F39.891583
F116.465889
tp193
sI46
(F39.906551
F116.475856
tp194
sI47
(F39.908671
F116.588531
tp195
sI1032
(F39.967501
F116.429444
tp196
sI563
(F39.873611
F116.526389
tp197
sI521
(F39.958689
F116.492841
tp198
sI1592
(F39.887321
F116.513171
tp199
sI4667
(F39.920701
F116.489101
tp200
sI60
(F39.908301
F116.564271
tp201
sI2109
(F39.924331
F116.518371
tp202
sI1973
(F39.906901
F116.510861
tp203
sI2114
(F39.922701
F116.429001
tp204
sI2571
(F39.875981
F116.472178
tp205
sI1371
(F39.866072
F116.466536
tp206
sI97
(F39.983111
F116.475441
tp207
sI3656
(F39.891308
F116.412225
tp208
sI1099
(F39.906001
F116.454389
tp209
sI2636
(F39.899631
F116.470931
tp210
sI589
(F39.882501
F116.456667
tp211
sI1614
(F39.914583
F116.504986
tp212
sI593
(F39.901631
F116.581201
tp213
sI6738
(F39.913501
F116.448722
tp214
sI1878
(F39.821389
F116.456944
tp215
sI85
(F39.908881
F116.558911
tp216
sI2647
(F39.935278
F116.428889
tp217
sI600
(F39.865833
F116.451944
tp218
sI2649
(F39.903333
F116.426667
tp219
sI1626
(F39.933201
F116.456305
tp220
sI1627
(F39.906201
F116.493701
tp221
sI606
(F39.869444
F116.472778
tp222
sI95
(F40.010278
F116.506944
tp223
sI6241
(F39.965536
F116.387621
tp224
sI1122
(F39.873226
F116.454752
tp225
sI99
(F39.981662
F116.471009
tp226
sI613
(F39.884167
F116.469722
tp227
sI614
(F39.890941
F116.473031
tp228
sI4202
(F39.900833
F116.563611
tp229
sI208
(F39.882501
F116.462501
tp230
sI1134
(F39.905497
F116.434806
tp231
sI623
(F39.910151
F116.485601
tp232
sI2672
(F39.921761
F116.494811
tp233
sI6073
(F39.868891
F116.502221
tp234
sI1521
(F39.873889
F116.443889
tp235
sI2164
(F39.868875
F116.457222
tp236
sI118
(F39.876667
F116.482778
tp237
sI119
(F39.879667
F116.479167
tp238
sI120
(F39.873333
F116.465556
tp239
sI1556
(F39.892472
F116.456778
tp240
sI5242
(F39.889751
F116.461701
tp241
sI1661
(F39.974472
F116.341722
tp242
sI4885
(F39.895352
F116.450811
tp243
sI1387
(F39.915517
F116.556306
tp244
sI5989
(F39.924722
F116.455001
tp245
sI1999
(F39.861858
F116.456128
tp246
sI1159
(F39.976667
F116.417778
tp247
sI2698
(F39.906901
F116.413001
tp248
sI2699
(F39.907774
F116.412693
tp249
sI6850
(F39.877701
F116.454131
tp250
sI1168
(F39.856056
F116.399422
tp251
sI2196
(F39.885556
F116.439444
tp252
sI3694
(F39.916719
F116.476283
tp253
sI772
(F39.823171
F116.398261
tp254
sI5401
(F39.887751
F116.456131
tp255
sI4250
(F39.935671
F116.511961
tp256
sI156
(F39.941667
F116.429167
tp257
sI3230
(F39.862047
F116.554364
tp258
sI5279
(F39.869861
F116.463694
tp259
sI624
(F39.883751
F116.454805
tp260
sI3611
(F39.916389
F116.511389
tp261
sI2000
(F39.869722
F116.459167
tp262
sI1189
(F39.833664
F116.471111
tp263
sI3753
(F39.912501
F116.440278
tp264
sI682
(F39.863667
F116.483583
tp265
sI4780
(F39.910278
F116.481475
tp266
sI3247
(F39.880251
F116.464333
tp267
sI2226
(F39.864801
F116.584801
tp268
sI3763
(F39.980833
F116.448889
tp269
sI694
(F39.921389
F116.480556
tp270
sI695
(F39.926231
F116.528731
tp271
sI1634
(F39.961389
F116.410556
tp272
sI1211
(F39.907553
F116.465578
tp273
sI1724
(F39.856049
F116.380944
tp274
sI189
(F39.856428
F116.422667
tp275
sI2238
(F39.967811
F116.427221
tp276
sI3264
(F39.893991
F116.413851
tp277
sI193
(F39.878841
F116.411931
tp278
sI194
(F39.862811
F116.415901
tp279
sI1221
(F39.844389
F116.320397
tp280
sI1950
(F39.958787
F116.447849
tp281
sI1313
(F39.920469
F116.512828
tp282
sI1736
(F39.895051
F116.456131
tp283
sI1484
(F40.012741
F116.588569
tp284
sI5322
(F39.876361
F116.481194
tp285
sI3787
(F39.894481
F116.435451
tp286
sI3276
(F39.914305
F116.494584
tp287
sI3278
(F39.817831
F116.484471
tp288
sI720
(F39.785139
F116.414278
tp289
sI2772
(F39.947222
F116.467528
tp290
sI2773
(F39.946778
F116.455972
tp291
sI2262
(F39.915486
F116.451689
tp292
sI121
(F39.913741
F116.420001
tp293
sI216
(F39.893056
F116.453694
tp294
sI217
(F39.887778
F116.454722
tp295
sI4826
(F39.923661
F116.476194
tp296
sI219
(F39.907778
F116.438889
tp297
sI1757
(F39.986938
F116.437648
tp298
sI1758
(F39.881756
F116.483156
tp299
sI223
(F39.894997
F116.456156
tp300
sI224
(F39.894861
F116.454671
tp301
sI1249
(F39.831131
F116.477481
tp302
sI226
(F39.902833
F116.454889
tp303
sI1979
(F39.905201
F116.454101
tp304
sI2277
(F39.849722
F116.470925
tp305
sI2791
(F39.904917
F116.454556
tp306
sI1559
(F39.865472
F116.461001
tp307
sI1883
(F39.864301
F116.500501
tp308
sI2796
(F39.865058
F116.573242
tp309
sI752
(F39.962121
F116.389861
tp310
sI3314
(F39.914061
F116.489161
tp311
sI2804
(F39.872136
F116.452156
tp312
sI2430
(F39.901501
F116.479771
tp313
sI3892
(F39.879722
F116.449167
tp314
sI3796
(F39.861111
F116.447222
tp315
sI3834
(F39.814001
F116.451001
tp316
sI2300
(F39.974931
F116.445271
tp317
sI1277
(F39.923605
F116.649927
tp318
sI3285
(F39.861971
F116.497961
tp319
sI1280
(F39.892751
F116.454861
tp320
sI257
(F39.892951
F116.450831
tp321
sI258
(F40.040111
F116.299917
tp322
sI259
(F39.894631
F116.454451
tp323
sI2308
(F39.911944
F116.449167
tp324
sI4357
(F39.859841
F116.449471
tp325
sI4870
(F39.950325
F116.374322
tp326
sI4872
(F39.820211
F116.494601
tp327
sI777
(F39.857701
F116.395501
tp328
sI778
(F39.858056
F116.434722
tp329
sI6871
(F39.917472
F116.481389
tp330
sI3341
(F39.913781
F116.487711
tp331
sI974
(F39.868091
F116.531931
tp332
sI557
(F39.873611
F116.492778
tp333
sI787
(F39.907751
F116.571751
tp334
sI277
(F39.903971
F116.441911
tp335
sI1935
(F39.858031
F116.415201
tp336
sI4825
(F39.91361111
F116.47819444
tp337
sI1304
(F39.939242
F116.511487
tp338
sI1305
(F39.913131
F116.447571
tp339
sI7451
(F39.900981
F116.503711
tp340
sI2844
(F39.910556
F116.451667
tp341
sI3870
(F39.906194
F116.626444
tp342
sI12064
(F39.898501
F116.453001
tp343
sI5409
(F39.961105
F116.436808
tp344
sI2338
(F39.870547
F116.444219
tp345
sI293
(F39.855616
F116.302515
tp346
sI1830
(F39.872981
F116.450958
tp347
sI1831
(F39.879167
F116.453611
tp348
sI10921
(F39.912205
F116.336981
tp349
sI2866
(F39.937221
F116.514931
tp350
sI3374
(F39.896251
F116.464111
tp351
sI1245
(F39.828461
F116.468841
tp352
sI4402
(F40.051253
F116.609477
tp353
sI1331
(F39.957417
F116.446694
tp354
sI2356
(F39.864167
F116.420001
tp355
sI4407
(F39.900501
F116.449911
tp356
sI4823
(F39.931111
F116.493889
tp357
sI5940
(F39.907111
F116.569806
tp358
sI4411
(F39.897978
F116.424733
tp359
sI8508
(F39.920197
F116.418064
tp360
sI829
(F39.907607
F116.488787
tp361
sI830
(F39.878981
F116.541208
tp362
sI2368
(F39.838661
F116.556742
tp363
sI1248
(F39.909989
F116.575717
tp364
sI1346
(F39.907931
F116.459761
tp365
sI225
(F39.891714
F116.454508
tp366
sI3912
(F40.010556
F116.563611
tp367
sI1353
(F39.912222
F116.510278
tp368
sI4938
(F39.857541
F116.421121
tp369
sI567
(F39.883889
F116.417778
tp370
sI909
(F39.906556
F116.444556
tp371
sI5456
(F39.913611
F116.478194
tp372
sI2389
(F39.894711
F116.421881
tp373
sI5462
(F39.908092
F116.452164
tp374
sI2905
(F39.905691
F116.481991
tp375
sI1290
(F40.038864
F116.527381
tp376
sI911
(F39.859639
F116.449028
tp377
sI2351
(F39.918551
F116.457061
tp378
sI351
(F39.922331
F116.495683
tp379
sI352
(F39.922222
F116.455111
tp380
sI353
(F39.921496
F116.444384
tp381
sI866
(F39.844586
F116.421691
tp382
sI1891
(F39.908951
F116.525161
tp383
sI1892
(F39.909597
F116.591594
tp384
sI1332
(F39.958611
F116.452222
tp385
sI3592
(F39.968501
F116.400722
tp386
sI1385
(F39.914167
F116.543611
tp387
sI1386
(F39.912471
F116.537461
tp388
sI363
(F39.865701
F116.451911
tp389
sI4461
(F39.897056
F116.465556
tp390
sI8047
(F39.912017
F116.496856
tp391
sI1392
(F39.914444
F116.432501
tp392
sI232
(F40.026281
F116.622701
tp393
sI2058
(F39.901442
F116.485447
tp394
sI3443
(F39.866821
F116.453561
tp395
sI1909
(F39.906491
F116.471361
tp396
sI5002
(F39.867421
F116.446481
tp397
sI1291
(F39.979694
F116.478333
tp398
sI148
(F39.868333
F116.431111
tp399
sI2426
(F39.907778
F116.448056
tp400
sI1073
(F39.873986
F116.432901
tp401
sI6525
(F39.871161
F116.444471
tp402
sI2263
(F39.914671
F116.469061
tp403
sI1919
(F39.891392
F116.652661
tp404
sI935
(F39.913341
F116.445471
tp405
sI5349
(F39.867222
F116.510833
tp406
sI1725
(F39.832473
F116.488436
tp407
sI3462
(F39.863501
F116.453111
tp408
sI903
(F39.899647
F116.456972
tp409
sI904
(F39.914925
F116.456077
tp410
sI2645
(F39.869221
F116.411801
tp411
sI2442
(F39.918025
F116.572997
tp412
sI5515
(F39.893372
F116.466347
tp413
sI2445
(F39.947801
F116.402001
tp414
sI910
(F39.905931
F116.501681
tp415
sI399
(F39.904167
F116.421667
tp416
sI912
(F39.866944
F116.470833
tp417
sI2961
(F39.923222
F116.513389
tp418
sI2450
(F39.868041
F116.391041
tp419
sI915
(F39.982983
F116.452293
tp420
sI2452
(F39.891583
F116.435889
tp421
sI920
(F39.907778
F116.431111
tp422
sI1434
(F39.824167
F116.418611
tp423
sI3055
(F39.864431
F116.442745
tp424
sI924
(F39.867455
F116.377705
tp425
sI413
(F39.922108
F116.473831
tp426
sI926
(F39.964761
F116.396191
tp427
sI927
(F39.961667
F116.402222
tp428
sI928
(F39.968909
F116.412367
tp429
sI929
(F39.963082
F116.430475
tp430
sI930
(F39.963511
F116.414971
tp431
sI932
(F39.968458
F116.419115
tp432
sI934
(F39.900651
F116.431386
tp433
sI1959
(F39.906701
F116.455001
tp434
sI1448
(F39.867151
F116.440781
tp435
sI1071
(F39.883401
F116.440191
tp436
sI938
(F39.809139
F116.417278
tp437
sI197
(F39.866944
F116.394444
tp438
sI1936
(F39.889121
F116.516211
tp439
sI6573
(F39.866301
F116.456911
tp440
sI1454
(F39.885001
F116.446111
tp441
sI1455
(F39.886278
F116.453001
tp442
sI1458
(F39.877183
F116.461925
tp443
sI4532
(F39.906972
F116.571889
tp444
sI437
(F39.869601
F116.453831
tp445
sI937
(F39.900121
F116.414431
tp446
sI4565
(F39.916791
F116.447991
tp447
sI1977
(F39.981389
F116.466944
tp448
sI3003
(F39.915472
F116.493361
tp449
sI6077
(F39.892792
F116.440331
tp450
sI961
(F39.921822
F116.472311
tp451
sI765
(F39.985511
F116.482885
tp452
sI4549
(F39.978321
F116.461401
tp453
sI10183
(F39.915833
F116.481111
tp454
sI3132
(F39.902222
F116.420556
tp455
sI2775
(F39.890832
F116.484414
tp456
sI4874
(F39.863161
F116.470881
tp457
sI4355
(F39.975278
F116.488751
tp458
sI972
(F39.851504
F116.394584
tp459
sI5069
(F39.881944
F116.444444
tp460
sI1998
(F39.873981
F116.456771
tp461
sI3023
(F39.910099
F116.349356
tp462
sI976
(F39.830461
F116.451431
tp463
sI3025
(F39.914167
F116.429722
tp464
sI2002
(F39.911667
F116.434722
tp465
sI936
(F39.904044
F116.420164
tp466
sI869
(F39.872003
F116.425547
tp467
sI3662
(F40.095291
F116.580831
tp468
sI4363
(F39.904291
F116.465441
tp469
sI410
(F39.916451
F116.443803
tp470
sI361
(F39.869681
F116.459551
tp471
sI3550
(F39.978083
F116.502647
tp472
sI408
(F39.906389
F116.467778
tp473
sI8677
(F40.335664
F116.673883
tp474
sI487
(F39.866944
F116.461055
tp475
sI7656
(F39.865051
F116.469451
tp476
sI1515
(F39.876389
F116.396944
tp477
sI2028
(F39.902101
F116.423511
tp478
sI1618
(F39.844791
F116.425311
tp479
sI1006
(F39.936361
F116.524341
tp480
sI9711
(F39.868867
F116.456056
tp481
sI522
(F39.960944
F116.488944
tp482
sI3375
(F39.922311
F116.467222
tp483
sI3570
(F39.909032
F116.539214
tp484
sI5630
(F39.899597
F116.463659
tp485
sI1527
(F39.890556
F116.380833
tp486
sI2552
(F39.895031
F116.456883
tp487
sI5627
(F39.873111
F116.453889
tp488
sI1532
(F39.971111
F116.411944
tp489
sI1450
(F39.888991
F116.383542
tp490
sI3582
(F39.905501
F116.454251
tp491
sI5119
(F39.889639
F116.459028
tp492
ssI12196
(dp493
I6660
(F39.988228
F116.308678
tp494
sI1541
(F39.990111
F116.330251
tp495
sI3977
(F39.975028
F116.311556
tp496
sI650
(F39.884931
F116.672281
tp497
sI1163
(F39.990311
F116.351102
tp498
sI269
(F40.017402
F116.305637
tp499
sI655
(F39.977189
F116.305564
tp500
sI8464
(F39.920349
F116.327869
tp501
sI785
(F39.988501
F116.318872
tp502
sI658
(F39.763371011
F116.322339649
tp503
sI663
(F39.994141
F116.405721
tp504
sI24
(F40.050083
F116.298417
tp505
sI3460
(F39.994901
F116.293001
tp506
sI3994
(F40.020209
F116.302722
tp507
sI2078
(F39.988231
F116.311401
tp508
sI287
(F39.983334
F116.309945
tp509
sI545
(F39.984811
F116.315931
tp510
sI676
(F39.980345
F116.370601
tp511
sI422
(F39.978994
F116.329721
tp512
sI1962
(F39.981691
F116.332721
tp513
sI1964
(F39.985921
F116.304434
tp514
sI687
(F39.983118
F116.310884
tp515
sI3632
(F39.983464
F116.308398
tp516
sI2097
(F40.017394
F116.325471
tp517
sI4830
(F39.977181
F116.308881
tp518
sI950
(F39.592431
F116.183104
tp519
sI8503
(F39.980015
F116.311137
tp520
sI3828
(F39.983056
F116.309167
tp521
sI1981
(F40.000241
F116.352881
tp522
sI7231
(F39.975395
F116.313438
tp523
sI2497
(F39.979381
F116.308711
tp524
sI968
(F39.990301
F116.339161
tp525
sI7625
(F39.991541
F116.319551
tp526
sI3018
(F40.008171
F116.328254
tp527
sI333
(F39.991104
F116.343872
tp528
sI1149
(F39.981928
F116.308731
tp529
sI1873
(F40.008801
F116.267881
tp530
sI12196
(F39.905001
F116.342225
tp531
sI1246
(F39.886583
F116.673001
tp532
sI3939
(F39.978871
F116.306551
tp533
sI1512
(F39.886901
F116.675301
tp534
sI6376
(F40.071389
F116.323528
tp535
sI664
(F39.977237
F116.308991
tp536
sI1260
(F39.981862
F116.317841
tp537
sI786
(F39.983061
F116.319341
tp538
sI6255
(F39.983471
F116.308391
tp539
sI3312
(F39.977147
F116.304633
tp540
sI1905
(F39.977501
F116.292001
tp541
sI4479
(F40.006201
F116.279001
tp542
sI2548
(F39.963305
F116.335277
tp543
sI2686
(F39.983333
F116.309944
tp544
sI888
(F39.990531
F116.363311
tp545
sI575
(F40.010696
F116.338602
tp546
sI4604
(F39.989352
F116.356064
tp547
sI7165
(F39.983211
F116.306881
tp548
sI1150
(F39.991361
F116.309306
tp549
sI1258
(F39.983031
F116.298521
tp550
ssI12202
(dp551
I7687
(F39.973137
F116.336785
tp552
sI1036
(F40.030251
F116.342878
tp553
sI3602
(F39.939745
F116.352787
tp554
sI19
(F39.935111
F116.307931
tp555
sI4116
(F40.033301
F116.317981
tp556
sI21
(F40.007065
F116.330933
tp557
sI23
(F40.069972
F116.309056
tp558
sI4126
(F39.934811
F116.148161
tp559
sI1571
(F39.980711
F116.348861
tp560
sI548
(F40.062361
F116.318889
tp561
sI1574
(F40.018161
F116.346599
tp562
sI1064
(F39.975889
F116.315167
tp563
sI1065
(F39.987251
F116.343111
tp564
sI1066
(F39.983194
F116.330944
tp565
sI2091
(F39.995833
F116.361667
tp566
sI558
(F40.004806
F116.340319
tp567
sI2095
(F40.002222
F116.335555
tp568
sI2096
(F39.991361
F116.333388
tp569
sI1074
(F39.980028
F116.354194
tp570
sI2099
(F39.885125
F116.308933
tp571
sI1076
(F40.090317
F116.316542
tp572
sI4663
(F40.069555
F116.301701
tp573
sI2107
(F39.919001
F116.273501
tp574
sI5183
(F39.816094
F116.195586
tp575
sI4161
(F40.426014
F117.228866
tp576
sI4162
(F39.804611
F116.319501
tp577
sI8262
(F39.989917
F116.334861
tp578
sI7243
(F39.997001
F116.581271
tp579
sI7250
(F39.996311
F116.337061
tp580
sI5721
(F39.973194
F116.294251
tp581
sI3163
(F39.985966
F116.322931
tp582
sI3164
(F39.985677
F116.332597
tp583
sI6755
(F40.008946
F116.360321
tp584
sI2153
(F39.958269
F116.339994
tp585
sI1651
(F40.141891
F116.283991
tp586
sI4226
(F40.002889
F116.576778
tp587
sI1155
(F39.755598
F116.547241
tp588
sI647
(F39.996389
F116.378611
tp589
sI1161
(F39.987337
F116.352191
tp590
sI651
(F40.070612
F116.353881
tp591
sI5260
(F39.986467
F116.327712
tp592
sI142
(F39.988183
F116.296383
tp593
sI1688
(F40.007551
F116.315201
tp594
sI1689
(F39.989963
F116.297652
tp595
sI10908
(F39.984282
F116.355011
tp596
sI6817
(F39.994278
F116.341239
tp597
sI4258
(F39.917203
F116.440886
tp598
sI1700
(F40.071571
F116.290551
tp599
sI4775
(F40.334171
F116.851758
tp600
sI4778
(F39.981521
F116.363131
tp601
sI6335
(F39.757941
F116.558601
tp602
sI1218
(F40.088462
F116.280562
tp603
sI200
(F40.000183
F116.575272
tp604
sI9417
(F39.983445
F116.321767
tp605
sI4811
(F40.000005
F116.337318
tp606
sI4818
(F39.992431
F116.328021
tp607
sI5412
(F40.018801
F116.341041
tp608
sI4831
(F39.983333
F116.428889
tp609
sI5345
(F39.983151
F116.327941
tp610
sI2275
(F39.997911
F116.326351
tp611
sI1252
(F40.040591
F116.307961
tp612
sI3818
(F39.915697
F116.412192
tp613
sI5876
(F39.962844
F116.336497
tp614
sI1321
(F39.997591
F116.330331
tp615
sI250
(F40.086433
F116.309093
tp616
sI1578
(F40.000961
F116.339261
tp617
sI3456
(F40.001731
F116.322001
tp618
sI6919
(F39.933056
F116.403056
tp619
sI3338
(F39.997381
F116.318751
tp620
sI782
(F39.983195
F116.330945
tp621
sI3859
(F40.005472
F116.323889
tp622
sI789
(F39.97342
F116.33788
tp623
sI5912
(F39.906411
F116.171111
tp624
sI1307
(F40.012921
F116.345001
tp625
sI3358
(F39.988765
F116.313292
tp626
sI290
(F39.990931
F116.357532
tp627
sI291
(F40.007222
F116.348055
tp628
sI292
(F39.985833
F116.340002
tp629
sI295
(F40.040654
F116.309079
tp630
sI3369
(F39.992991
F116.344181
tp631
sI6450
(F39.970541
F116.337111
tp632
sI1075
(F40.069861
F116.316028
tp633
sI820
(F40.016321
F116.358841
tp634
sI1846
(F39.995441
F116.358221
tp635
sI1335
(F39.979521
F116.344659
tp636
sI6465
(F39.991961
F116.320811
tp637
sI4935
(F39.980712
F116.348915
tp638
sI4434
(F39.986537
F116.405556
tp639
sI2390
(F40.000941
F116.339271
tp640
sI2394
(F39.976111
F116.377471
tp641
sI1902
(F39.966721
F116.259811
tp642
sI4990
(F39.941306
F116.346222
tp643
sI10624
(F39.969722
F116.333055
tp644
sI3968
(F39.938138
F116.346828
tp645
sI392
(F39.936261
F116.699041
tp646
sI578
(F40.008472
F116.348639
tp647
sI2446
(F39.962991
F116.341211
tp648
sI3736
(F40.000581
F116.568731
tp649
sI10644
(F40.004879
F116.329853
tp650
sI8088
(F39.971691
F116.331121
tp651
sI2972
(F40.003691
F116.345631
tp652
sI2980
(F39.984881
F116.371631
tp653
sI2470
(F40.002421
F116.357502
tp654
sI12202
(F39.935956
F116.445961
tp655
sI5547
(F39.974701
F116.332601
tp656
sI2476
(F39.976758
F116.337715
tp657
sI1965
(F39.997571
F116.330191
tp658
sI3505
(F39.991951
F116.320811
tp659
sI7091
(F39.954246
F116.343971
tp660
sI6068
(F39.976261
F116.336491
tp661
sI1462
(F40.024972
F116.339397
tp662
sI6071
(F39.941927
F116.350663
tp663
sI7097
(F39.974722
F116.331666
tp664
sI9147
(F39.989297
F116.340608
tp665
sI1980
(F39.999914
F116.345852
tp666
sI4029
(F40.003621
F116.307692
tp667
sI3518
(F40.000001
F116.375001
tp668
sI3016
(F40.018071
F116.318271
tp669
sI7121
(F39.761974
F116.551303
tp670
sI4052
(F40.048491
F116.584425
tp671
sI2011
(F39.926358
F116.319247
tp672
sI2526
(F39.968931
F116.358933
tp673
sI11232
(F39.985508
F116.331069
tp674
sI3041
(F39.865556
F116.515833
tp675
sI11818
(F40.012041
F116.341931
tp676
sI499
(F39.940159
F116.346479
tp677
sI1525
(F39.980227
F116.342527
tp678
sI8697
(F39.799351
F116.828541
tp679
sI1019
(F40.010086
F116.346591
tp680
ssI12340
(dp681
I6277
(F39.856771
F116.353211
tp682
sI5511
(F39.897264
F116.412975
tp683
sI779
(F39.883339
F116.430686
tp684
sI780
(F39.880029
F116.415057
tp685
sI1681
(F39.883231
F116.424691
tp686
sI7186
(F39.885564
F116.310332
tp687
sI153
(F39.864141
F116.438531
tp688
sI2031
(F39.911555
F116.424138
tp689
sI2207
(F39.879552
F116.38206
tp690
sI3875
(F39.947701
F116.448031
tp691
sI568
(F39.883944
F116.384611
tp692
sI1072
(F39.863611
F116.390833
tp693
sI6387
(F39.930091
F116.502741
tp694
sI12340
(F39.890811
F116.444331
tp695
sI5833
(F39.901111
F116.438889
tp696
sI2872
(F39.864501
F116.416056
tp697
sI3002
(F39.864241
F116.378481
tp698
sI6590
(F39.886944
F116.399444
tp699
sI5568
(F39.915833
F116.422222
tp700
sI6731
(F39.933691
F116.375207
tp701
sI4293
(F39.869251
F116.420715
tp702
sI1352
(F39.863723
F116.426357
tp703
sI2761
(F39.848006
F116.417364
tp704
sI971
(F39.860741
F116.380051
tp705
sI11088
(F39.864167
F116.429722
tp706
sI4049
(F39.851771
F116.448371
tp707
sI5202
(F39.887778
F116.336028
tp708
sI10326
(F39.881639
F116.469389
tp709
sI3161
(F39.887251
F116.403671
tp710
sI2360
(F39.866972
F116.437444
tp711
sI12771
(F39.912831
F116.430014
tp712
sI2001
(F39.949167
F116.419722
tp713
sI5102
(F39.961111
F116.415001
tp714
sI7151
(F39.990171
F116.536181
tp715
sI4236
(F39.904201
F116.412861
tp716
sI7283
(F39.860389
F116.391861
tp717
sI3454
(F39.860911
F116.420561
tp718
sI1143
(F39.887861
F116.424251
tp719
sI1144
(F39.881667
F116.388889
tp720
sI3141
(F39.869211
F116.411831
tp721
sI3835
(F39.868701
F116.386801
tp722
sI3453
(F39.860001
F116.421111
tp723
sI8190
(F39.932851
F116.439917
tp724
sI895
(F39.844103
F116.364412
tp725
ssI12347
(dp726
I2693
(F39.926531
F116.191151
tp727
sI134
(F39.925736
F116.194621
tp728
sI1381
(F39.938031
F116.202071
tp729
sI1803
(F39.948201
F116.083701
tp730
sI6671
(F39.812851
F116.392151
tp731
sI2834
(F39.935331
F116.104261
tp732
sI2835
(F39.932691
F116.100301
tp733
sI10004
(F39.921791
F116.193472
tp734
sI2837
(F39.925302
F116.137698
tp735
sI37
(F39.911472
F116.107333
tp736
sI166
(F39.933541
F116.187711
tp737
sI1834
(F39.925701
F116.195001
tp738
sI5036
(F39.916151
F116.174031
tp739
sI8749
(F39.948495
F116.448408
tp740
sI1583
(F39.905421
F116.159546
tp741
sI381
(F39.937221
F116.090561
tp742
sI6203
(F39.928811
F116.163021
tp743
sI5692
(F39.902092
F116.203461
tp744
sI3261
(F39.961111
F116.170278
tp745
sI4289
(F39.963119
F116.197687
tp746
sI4547
(F39.929081
F116.214391
tp747
sI7368
(F39.924661
F116.187271
tp748
sI4170
(F39.948392
F116.186022
tp749
sI2508
(F39.924851
F116.148051
tp750
sI3021
(F39.929167
F116.154333
tp751
sI3151
(F39.936667
F116.097214
tp752
sI2512
(F40.012751
F116.641389
tp753
sI6098
(F39.916505
F116.185559
tp754
sI8533
(F39.917533
F116.193571
tp755
sI3321
(F39.924871
F116.148041
tp756
sI5589
(F39.924527
F116.190055
tp757
sI5209
(F39.622151
F116.045381
tp758
sI5037
(F39.912402
F116.177351
tp759
sI8412
(F39.9074
F116.21857
tp760
sI10405
(F39.931368
F116.184338
tp761
sI1377
(F39.938071
F116.202111
tp762
sI1378
(F39.942101
F116.188001
tp763
sI12347
(F39.921777
F116.190443
tp764
sI7524
(F39.924651
F116.194131
tp765
sI3813
(F39.936781
F116.081506
tp766
sI7509
(F39.920411
F116.110177
tp767
sI2536
(F39.945631
F116.168921
tp768
sI1380
(F39.916781
F116.254621
tp769
sI6506
(F39.955277
F116.119722
tp770
sI5003
(F39.9266377
F116.1585842
tp771
sI7406
(F39.866091
F116.466291
tp772
sI6269
(F39.921139
F116.187306
tp773
sI8304
(F39.930389
F116.195028
tp774
sI7144
(F39.924321
F116.076241
tp775
sI7282
(F39.902441
F116.181301
tp776
sI2931
(F39.925352
F116.137602
tp777
sI2932
(F39.931501
F116.199195
tp778
sI2550
(F39.925744
F116.099342
tp779
sI2168
(F39.931211
F116.185461
tp780
sI2169
(F39.927591
F116.185991
tp781
sI2170
(F39.931791
F116.194811
tp782
sI7293
(F39.927941
F116.196891
tp783
sI382
(F39.930293
F116.088499
tp784
sI10133
(F39.921267
F116.191464
tp785
ssI12092
(dp786
I2822
(F39.710028
F116.057639
tp787
sI4635
(F39.980355
F116.418581
tp788
sI7196
(F39.714501
F115.981001
tp789
sI5406
(F39.718731
F116.074062
tp790
sI6307
(F39.716501
F115.928001
tp791
sI4230
(F39.731305
F116.116816
tp792
sI2219
(F39.724701
F115.951001
tp793
sI1580
(F39.692194
F116.060687
tp794
sI7538
(F39.704851
F115.943844
tp795
sI8499
(F39.797833
F115.977611
tp796
sI3508
(F39.698661
F116.008671
tp797
sI1333
(F39.756601
F115.960001
tp798
sI1849
(F39.693201
F115.985001
tp799
sI12092
(F39.708249
F116.062611
tp800
sI4929
(F39.693901
F115.979001
tp801
sI5831
(F39.724483
F116.130191
tp802
sI969
(F39.727333
F116.059611
tp803
sI6476
(F39.704016
F116.057433
tp804
sI6221
(F39.742291
F115.973691
tp805
sI3286
(F39.728451
F116.064381
tp806
sI344
(F39.7285
F115.977138
tp807
sI7260
(F39.745141
F115.931141
tp808
sI1886
(F39.708887
F115.962423
tp809
sI1887
(F39.720301
F115.966001
tp810
sI2656
(F39.701624
F115.985518
tp811
sI2657
(F39.692166
F115.972183
tp812
sI9571
(F39.912851
F116.528881
tp813
sI1140
(F39.602601
F115.953001
tp814
sI4070
(F39.760511072
F116.06332345
tp815
sI10548
(F39.713401
F116.085501
tp816
sI4072
(F39.723833
F116.033583
tp817
sI4714
(F39.718972
F116.026278
tp818
sI6507
(F39.705401
F115.967001
tp819
sI3507
(F39.702778
F115.999111
tp820
sI2075
(F39.754638
F116.130527
tp821
sI6642
(F39.700931
F116.079271
tp822
sI7668
(F39.913351
F116.496342
tp823
sI1141
(F39.627801
F115.959001
tp824
sI9590
(F39.714111
F116.055139
tp825
sI6137
(F39.701874
F115.977304
tp826
sI5628
(F39.728281
F116.114811
tp827
sI8298
(F39.802004
F116.538786
tp828
ssI12100
(dp829
I768
(F40.022891
F116.504941
tp830
sI769
(F40.033711
F116.524521
tp831
sI733
(F40.059444
F116.495556
tp832
sI3926
(F40.040771
F116.506121
tp833
sI1289
(F40.061961
F116.536241
tp834
sI3470
(F40.008915
F116.499101
tp835
sI3373
(F40.058651
F116.509381
tp836
sI913
(F39.991588
F116.476369
tp837
sI2962
(F40.071751
F116.552101
tp838
sI275
(F40.088055
F116.552221
tp839
sI1303
(F39.982501
F116.564166
tp840
sI5400
(F40.112081
F116.542151
tp841
sI2586
(F39.986501
F116.410194
tp842
sI1308
(F40.031639
F116.341361
tp843
sI157
(F39.997471
F116.463491
tp844
sI1311
(F40.086061
F116.575521
tp845
sI5408
(F40.021111
F116.483333
tp846
sI4898
(F40.045161
F116.591721
tp847
sI1190
(F40.032141
F116.498311
tp848
sI1705
(F40.076301
F116.552901
tp849
sI3372
(F40.037001
F116.423301
tp850
sI685
(F40.005836
F116.342963
tp851
sI2735
(F39.962501
F116.274101
tp852
sI5554
(F40.102491
F116.563221
tp853
sI1204
(F39.983058
F116.410468
tp854
sI2616
(F39.969715
F116.430191
tp855
sI185
(F40.092267
F116.292333
tp856
sI2235
(F40.128472
F116.602444
tp857
sI2237
(F40.085365
F116.544189
tp858
sI1342
(F40.048221
F116.410331
tp859
sI833
(F39.993981
F116.500791
tp860
sI834
(F40.002001
F116.499401
tp861
sI12100
(F39.909722
F116.434167
tp862
sI2118
(F40.069931
F116.582898
tp863
sI2639
(F40.018701
F116.617521
tp864
sI1744
(F40.120011
F116.557991
tp865
sI466
(F40.010791
F116.356731
tp866
sI596
(F40.004031
F116.488911
tp867
sI597
(F40.041921
F116.516071
tp868
sI598
(F40.028056
F116.517778
tp869
sI87
(F39.975139
F116.362917
tp870
sI90
(F40.033161
F116.500521
tp871
sI1871
(F40.010602
F116.276341
tp872
sI93
(F40.033889
F116.507501
tp873
sI94
(F40.026252
F116.499324
tp874
sI2785
(F39.965938
F116.358386
tp875
sI2274
(F40.005248
F116.423712
tp876
sI2022
(F39.982601
F116.519551
tp877
sI2920
(F40.021671
F116.632221
tp878
sI5610
(F40.068101
F116.546851
tp879
sI2413
(F40.087211
F116.525991
tp880
sI3822
(F40.013211
F116.479201
tp881
sI5565
(F39.993531
F116.497491
tp882
sI6002
(F40.017685
F116.528572
tp883
sI7029
(F39.985501
F116.474083
tp884
sI2004
(F40.066871
F116.610341
tp885
sI3067
(F40.114445
F116.561112
tp886
sI766
(F39.987028
F116.470278
tp887
sI767
(F40.008809
F116.489357
tp888
ssI12230
(dp889
I128
(F39.951917
F116.302806
tp890
sI897
(F39.916743
F116.348376
tp891
sI3842
(F39.88027
F116.328092
tp892
sI1416
(F39.923131
F116.335321
tp893
sI1677
(F39.942801
F116.391701
tp894
sI5519
(F39.879861
F116.318761
tp895
sI5267
(F39.862171
F116.378166
tp896
sI2200
(F39.895568
F116.345375
tp897
sI1435
(F39.917547
F116.303637
tp898
sI3487
(F39.925966
F116.341875
tp899
sI3874
(F39.989898
F116.288716
tp900
sI923
(F39.876261
F116.321271
tp901
sI7077
(F40.146631
F116.491581
tp902
sI6951
(F39.920261
F116.308332
tp903
sI2856
(F39.854654
F116.370082
tp904
sI42
(F39.879751
F116.375741
tp905
sI43
(F39.857494
F116.362334
tp906
sI2737
(F39.918561
F116.347361
tp907
sI12230
(F39.877501
F116.333888
tp908
sI4409
(F39.894302
F116.377911
tp909
sI9146
(F39.911743
F116.327641
tp910
sI6972
(F39.881732
F116.366362
tp911
sI3005
(F39.88832
F116.37385
tp912
sI6210
(F39.915556
F116.335001
tp913
sI9283
(F39.881509
F116.344597
tp914
sI2758
(F39.876387
F116.381008
tp915
sI3527
(F39.910005
F116.369044
tp916
sI6986
(F39.922738
F116.347968
tp917
sI6987
(F39.952591
F116.380309
tp918
sI5538
(F39.927194
F116.344472
tp919
sI4546
(F39.915801
F116.339651
tp920
sI2130
(F39.988121
F116.448101
tp921
sI5971
(F39.858522
F116.331182
tp922
sI7636
(F39.928374
F116.338132
tp923
sI2133
(F39.938544
F116.438858
tp924
sI7481
(F39.894652
F116.313525
tp925
sI4444
(F39.924364
F116.292783
tp926
sI506
(F39.955744
F116.348218
tp927
sI3493
(F39.920891
F116.297621
tp928
sI7137
(F39.982981
F116.298471
tp929
sI4068
(F39.873504
F116.338737
tp930
sI3304
(F39.909076
F116.341159
tp931
sI747
(F39.900111
F116.352011
tp932
sI2158
(F39.847133
F116.341123
tp933
sI7997
(F39.889331
F116.335001
tp934
sI6512
(F39.930572
F116.342848
tp935
sI881
(F39.916121
F116.324101
tp936
sI8052
(F39.985001
F116.300058
tp937
sI11381
(F39.914636
F116.336866
tp938
sI6211
(F39.917332
F116.330814
tp939
sI2088
(F40.001833
F116.249417
tp940
sI2159
(F39.850471
F116.336162
tp941
sI2939
(F39.900222
F116.374361
tp942
sI7423
(F39.920974
F116.341264
tp943
ssI12023
(dp944
I2048
(F39.903203
F116.246893
tp945
sI2049
(F39.911151
F116.247151
tp946
sI1026
(F39.932371
F116.270851
tp947
sI2646
(F39.905361
F116.430811
tp948
sI1030
(F39.924745
F116.247945
tp949
sI1543
(F39.883991
F116.296351
tp950
sI1544
(F39.876944
F116.291861
tp951
sI6667
(F39.957048
F116.335351
tp952
sI2060
(F39.891651
F116.298165
tp953
sI1538
(F39.906111
F116.245833
tp954
sI14
(F39.943333
F116.296083
tp955
sI15
(F39.948556
F116.377444
tp956
sI2066
(F39.888681
F116.302201
tp957
sI3091
(F39.909852
F116.274066
tp958
sI1557
(F39.905141
F116.367131
tp959
sI534
(F39.919121
F116.288651
tp960
sI3098
(F39.909322
F116.257463
tp961
sI539
(F39.843128
F116.220915
tp962
sI1564
(F39.904741
F116.302351
tp963
sI4951
(F39.923207
F116.350753
tp964
sI544
(F39.984621
F116.297391
tp965
sI1569
(F39.904711
F116.376021
tp966
sI546
(F39.985627
F116.332619
tp967
sI547
(F39.987091
F116.373401
tp968
sI1061
(F39.917145
F116.206184
tp969
sI38
(F39.910157
F116.267212
tp970
sI2602
(F39.880776
F116.303209
tp971
sI4871
(F39.841833
F116.482139
tp972
sI2604
(F39.938561
F116.273721
tp973
sI2605
(F39.940515
F116.275571
tp974
sI2606
(F39.974801
F116.286001
tp975
sI559
(F39.999577
F116.331808
tp976
sI560
(F39.851349
F116.343627
tp977
sI2483
(F39.992778
F116.363889
tp978
sI1078
(F39.907201
F116.473001
tp979
sI4480
(F39.910611
F116.297694
tp980
sI61
(F39.863642
F116.372631
tp981
sI62
(F39.854444
F116.392778
tp982
sI1599
(F39.907631
F116.268495
tp983
sI1601
(F39.899061
F116.206281
tp984
sI447
(F39.985561
F116.300058
tp985
sI588
(F39.938306
F116.288417
tp986
sI2638
(F39.972508
F116.328206
tp987
sI591
(F39.922021
F116.370041
tp988
sI592
(F39.923611
F116.377222
tp989
sI952
(F39.974306
F116.299944
tp990
sI2403
(F39.864228
F116.291834
tp991
sI270
(F39.923781
F116.263271
tp992
sI86
(F39.976369
F116.351505
tp993
sI599
(F39.912773
F116.428492
tp994
sI1624
(F39.987446
F116.355895
tp995
sI356
(F39.932827
F116.372989
tp996
sI602
(F39.912311
F116.455258
tp997
sI3087
(F39.939864
F116.321719
tp998
sI395
(F39.925451
F116.209083
tp999
sI605
(F39.843311
F116.472881
tp1000
sI1630
(F39.847805
F116.205895
tp1001
sI1631
(F39.882384
F116.300044
tp1002
sI1632
(F39.924841
F116.348731
tp1003
sI1635
(F39.975251
F116.346833
tp1004
sI100
(F39.985111
F116.350751
tp1005
sI101
(F39.963669
F116.346051
tp1006
sI5222
(F39.867802
F116.287355
tp1007
sI1131
(F39.875431
F116.327711
tp1008
sI463
(F40.024132
F116.346359
tp1009
sI5391
(F39.934171
F116.265434
tp1010
sI113
(F39.877811
F116.303951
tp1011
sI114
(F39.880021
F116.295501
tp1012
sI115
(F39.832526
F116.393331
tp1013
sI3006
(F39.888291
F116.291521
tp1014
sI2166
(F39.937222
F116.298056
tp1015
sI631
(F39.906694
F116.290141
tp1016
sI632
(F39.912301
F116.301541
tp1017
sI2324
(F39.827472
F116.359139
tp1018
sI634
(F39.966389
F116.437222
tp1019
sI1147
(F39.981186
F116.302025
tp1020
sI5221
(F39.902091
F116.288451
tp1021
sI448
(F39.984701
F116.294601
tp1022
sI130
(F39.922069
F116.191663
tp1023
sI131
(F39.926611
F116.192541
tp1024
sI1982
(F39.966927
F116.345769
tp1025
sI1673
(F39.898201
F116.358001
tp1026
sI138
(F39.993602
F116.328127
tp1027
sI1675
(F39.897741
F116.358781
tp1028
sI140
(F39.990636
F116.323966
tp1029
sI2706
(F39.932251
F116.355726
tp1030
sI2707
(F39.932181
F116.375375
tp1031
sI149
(F39.864167
F116.433056
tp1032
sI662
(F39.973736
F116.312238
tp1033
sI6809
(F39.906681
F116.291491
tp1034
sI155
(F39.972645
F116.423602
tp1035
sI1562
(F39.902838
F116.300313
tp1036
sI973
(F39.869472
F116.487083
tp1037
sI674
(F39.957222
F116.286111
tp1038
sI677
(F39.987778
F116.403333
tp1039
sI1137
(F39.921833
F116.345926
tp1040
sI168
(F39.906111
F116.183611
tp1041
sI171
(F39.906101
F116.369001
tp1042
sI2220
(F39.985409
F116.307736
tp1043
sI173
(F39.919599
F116.259001
tp1044
sI174
(F39.916891
F116.254723
tp1045
sI689
(F39.855321
F116.378023
tp1046
sI883
(F39.944889
F116.292306
tp1047
sI2461
(F39.887222
F116.410556
tp1048
sI372
(F39.916727
F116.267792
tp1049
sI186
(F39.957611
F116.279403
tp1050
sI3260
(F39.827139
F116.193512
tp1051
sI3263
(F39.886705
F116.377456
tp1052
sI704
(F39.946595
F116.265092
tp1053
sI3265
(F39.934671
F116.285691
tp1054
sI195
(F39.833602
F116.383361
tp1055
sI708
(F39.965541
F116.334344
tp1056
sI1222
(F39.906124
F116.303871
tp1057
sI711
(F39.965001
F116.370611
tp1058
sI202
(F39.906514
F116.197664
tp1059
sI203
(F39.890556
F116.226919
tp1060
sI204
(F39.817861
F116.204808
tp1061
sI34
(F40.020021
F116.353621
tp1062
sI206
(F39.904201
F116.223933
tp1063
sI205
(F39.825024
F116.201428
tp1064
sI3792
(F39.975851
F116.378101
tp1065
sI1746
(F39.906901
F116.430001
tp1066
sI3619
(F39.929291
F116.263531
tp1067
sI1237
(F39.969751
F116.313983
tp1068
sI207
(F39.913764
F116.193321
tp1069
sI734
(F39.930031
F116.172281
tp1070
sI735
(F39.926667
F116.171667
tp1071
sI431
(F39.881329
F116.305691
tp1072
sI3024
(F39.981631
F116.292651
tp1073
sI891
(F39.929932
F116.278551
tp1074
sI4947
(F39.871512
F116.309146
tp1075
sI1489
(F39.847996
F116.226615
tp1076
sI6888
(F39.898611
F116.247634
tp1077
sI745
(F39.906101
F116.351001
tp1078
sI746
(F39.942417
F116.318472
tp1079
sI235
(F39.932082
F116.288249
tp1080
sI236
(F40.029583
F116.267528
tp1081
sI2514
(F39.906129
F116.287769
tp1082
sI1536
(F39.907611
F116.247381
tp1083
sI2511
(F39.906084
F116.268529
tp1084
sI3343
(F39.936111
F116.269611
tp1085
sI894
(F39.910158
F116.267213
tp1086
sI12023
(F39.906582
F116.279326
tp1087
sI3268
(F39.876522
F116.418508
tp1088
sI3833
(F39.946611
F116.265101
tp1089
sI764
(F39.892778
F116.424444
tp1090
sI3114
(F39.971431
F116.339761
tp1091
sI2302
(F39.961811
F116.300686
tp1092
sI2304
(F39.976827
F116.358108
tp1093
sI1408
(F39.957912
F116.285491
tp1094
sI2823
(F39.837741
F116.229951
tp1095
sI4361
(F39.898741
F116.274496
tp1096
sI1802
(F39.938306
F116.346566
tp1097
sI471
(F39.966862
F116.315672
tp1098
sI781
(F39.974806
F116.319139
tp1099
sI2318
(F39.9159
F116.277131
tp1100
sI1807
(F39.923096
F116.296829
tp1101
sI272
(F39.974441
F116.333169
tp1102
sI273
(F39.939731
F116.295641
tp1103
sI468
(F39.976277
F116.336416
tp1104
sI1811
(F39.895471
F116.247451
tp1105
sI1300
(F39.906389
F116.418889
tp1106
sI793
(F39.955371
F116.333333
tp1107
sI2607
(F39.9096509354449
F116.279778121781
tp1108
sI1271
(F39.925035
F116.367485
tp1109
sI288
(F39.980808
F116.309638
tp1110
sI1584
(F39.907051
F116.310462
tp1111
sI879
(F39.966056
F116.300859
tp1112
sI2438
(F39.986551
F116.327641
tp1113
sI3878
(F39.943192
F116.281617
tp1114
sI807
(F39.910454
F116.233275
tp1115
sI6952
(F39.897153
F116.316511
tp1116
sI809
(F39.893192
F116.214975
tp1117
sI1835
(F39.878056
F116.313955
tp1118
sI1836
(F39.976961
F116.309841
tp1119
sI4910
(F39.980528
F116.303778
tp1120
sI1844
(F39.967183
F116.362819
tp1121
sI222
(F39.906139
F116.455306
tp1122
sI2358
(F39.868911
F116.382088
tp1123
sI1336
(F39.975976
F116.365408
tp1124
sI3062
(F39.936433
F116.335583
tp1125
sI826
(F39.962822
F116.374223
tp1126
sI827
(F39.981151
F116.447488
tp1127
sI828
(F39.914897
F116.482117
tp1128
sI394
(F39.921045
F116.158315
tp1129
sI2357
(F39.927093
F116.281465
tp1130
sI1345
(F39.913851
F116.472322
tp1131
sI2883
(F39.767891
F116.338401
tp1132
sI4406
(F39.897811
F116.204341
tp1133
sI1683
(F39.983601
F116.304201
tp1134
sI2378
(F39.908056
F116.424167
tp1135
sI2379
(F39.973988
F116.299416
tp1136
sI336
(F39.905143
F116.214534
tp1137
sI5944
(F39.839395
F116.474883
tp1138
sI2415
(F39.953552
F116.232758
tp1139
sI340
(F39.919047
F116.194011
tp1140
sI854
(F39.905092
F116.314425
tp1141
sI1367
(F39.857391
F116.388651
tp1142
sI346
(F39.871136
F116.379968
tp1143
sI6317
(F39.906121
F116.266939
tp1144
sI861
(F39.989713
F116.308222
tp1145
sI2533
(F39.889635
F116.204199
tp1146
sI4001
(F39.90144
F116.26731
tp1147
sI1379
(F39.915905
F116.246069
tp1148
sI868
(F39.862457
F116.366928
tp1149
sI4965
(F39.942001
F116.305554
tp1150
sI2408
(F39.975836
F116.329888
tp1151
sI402
(F39.905295
F116.259647
tp1152
sI878
(F39.882453
F116.311692
tp1153
sI2927
(F39.917581
F116.294341
tp1154
sI3440
(F39.918021
F116.338894
tp1155
sI882
(F39.914054
F116.304762
tp1156
sI3955
(F39.846039
F116.319611
tp1157
sI884
(F39.946241
F116.379021
tp1158
sI1598
(F39.906111
F116.206389
tp1159
sI5495
(F39.91061
F116.297693
tp1160
sI1223
(F39.902938
F116.220444
tp1161
sI889
(F39.921314
F116.348194
tp1162
sI890
(F39.930166
F116.348583
tp1163
sI5499
(F39.947136
F116.287261
tp1164
sI892
(F39.931694
F116.296417
tp1165
sI893
(F39.948177
F116.281883
tp1166
sI1622
(F39.974132
F116.345517
tp1167
sI1407
(F39.952944
F116.277028
tp1168
sI896
(F39.921253
F116.332971
tp1169
sI432
(F39.896081
F116.290861
tp1170
sI898
(F39.973961
F116.345444
tp1171
sI899
(F39.970583
F116.363472
tp1172
sI900
(F39.970601
F116.376361
tp1173
sI901
(F39.871659
F116.389661
tp1174
sI6022
(F39.907122
F116.293855
tp1175
sI6023
(F39.957201
F116.287584
tp1176
sI905
(F39.898271
F116.377211
tp1177
sI3978
(F39.921754
F116.302819
tp1178
sI1419
(F39.932564
F116.311502
tp1179
sI2444
(F39.939401
F116.351001
tp1180
sI401
(F39.906742
F116.298137
tp1181
sI914
(F39.982852
F116.349602
tp1182
sI403
(F39.908961
F116.303091
tp1183
sI916
(F39.941028
F116.267251
tp1184
sI917
(F39.975875
F116.328369
tp1185
sI919
(F39.960781
F116.293075
tp1186
sI3483
(F39.895361
F116.237391
tp1187
sI925
(F39.920581
F116.427991
tp1188
sI1861
(F39.9053
F116.345022
tp1189
sI3488
(F39.902281
F116.296871
tp1190
sI417
(F39.867801
F116.370351
tp1191
sI418
(F39.974656
F116.305024
tp1192
sI419
(F39.977601
F116.299569
tp1193
sI420
(F39.958835
F116.300527
tp1194
sI421
(F39.990725
F116.315611
tp1195
sI1958
(F39.864701
F116.453282
tp1196
sI423
(F39.965683
F116.323305
tp1197
sI424
(F39.870015
F116.369412
tp1198
sI425
(F39.818681
F116.206901
tp1199
sI1453
(F39.983981
F116.432711
tp1200
sI2991
(F39.913345
F116.290465
tp1201
sI2992
(F39.909761
F116.293952
tp1202
sI433
(F39.8938
F116.23319
tp1203
sI434
(F39.894681
F116.301811
tp1204
sI435
(F39.932507
F116.380286
tp1205
sI436
(F39.907778
F116.456944
tp1206
sI439
(F39.854378
F116.340544
tp1207
sI1976
(F39.974928
F116.451488
tp1208
sI1466
(F39.916736
F116.303655
tp1209
sI867
(F39.891389
F116.412222
tp1210
sI444
(F39.984722
F116.392778
tp1211
sI445
(F39.987419
F116.359963
tp1212
sI446
(F39.983411
F116.311531
tp1213
sI1983
(F39.938861
F116.349944
tp1214
sI960
(F39.932613
F116.297619
tp1215
sI449
(F39.957222
F116.272944
tp1216
sI4585
(F39.922601
F116.351001
tp1217
sI1526
(F39.969614
F116.332017
tp1218
sI5063
(F39.896911
F116.310891
tp1219
sI3531
(F39.906469
F116.373686
tp1220
sI3490
(F39.878461
F116.269431
tp1221
sI462
(F39.966111
F116.376389
tp1222
sI5071
(F39.929131
F116.258373
tp1223
sI271
(F39.976969
F116.337798
tp1224
sI3832
(F39.946221
F116.254371
tp1225
sI978
(F39.900835
F116.237719
tp1226
sI931
(F39.976036
F116.412515
tp1227
sI1492
(F39.927333
F116.273751
tp1228
sI469
(F39.971028
F116.312581
tp1229
sI2518
(F39.894375
F116.305131
tp1230
sI885
(F39.947913
F116.369516
tp1231
sI472
(F39.965306
F116.316251
tp1232
sI1908
(F39.906111
F116.230556
tp1233
sI3036
(F39.920278
F116.199722
tp1234
sI478
(F39.844801
F116.421931
tp1235
sI2516
(F39.866651
F116.304947
tp1236
sI252
(F39.932442
F116.326141
tp1237
sI887
(F39.951639
F116.268889
tp1238
sI1806
(F39.872107
F116.329211
tp1239
sI2531
(F39.883211
F116.424211
tp1240
sI996
(F39.922063
F116.283314
tp1241
sI997
(F39.921811
F116.292231
tp1242
sI998
(F39.869882
F116.303945
tp1243
sI337
(F39.906735
F116.242083
tp1244
sI4348
(F39.924515
F116.286659
tp1245
sI1514
(F39.863401
F116.395031
tp1246
sI2539
(F39.905639
F116.255533
tp1247
sI289
(F39.982056
F116.309833
tp1248
sI495
(F39.865831
F116.340951
tp1249
sI3325
(F39.923741
F116.297545
tp1250
sI497
(F39.949801
F116.364301
tp1251
sI1523
(F39.984233
F116.342668
tp1252
sI2038
(F39.927528
F116.295001
tp1253
sI1449
(F39.874167
F116.455833
tp1254
sI1551
(F39.932083
F116.303001
tp1255
sI508
(F39.906528
F116.282513
tp1256
sI2045
(F39.901145
F116.229274
tp1257
ssI12238
(dp1258
I2560
(F39.973061
F116.381272
tp1259
sI1539
(F40.009946
F116.545037
tp1260
sI132
(F39.927988
F116.187457
tp1261
sI133
(F39.931511
F116.196211
tp1262
sI3206
(F39.817811
F116.396891
tp1263
sI2695
(F39.906112
F116.230557
tp1264
sI11400
(F40.289929
F116.013643
tp1265
sI9623
(F39.894281
F116.188031
tp1266
sI396
(F39.927431
F116.233914
tp1267
sI397
(F39.916931
F116.185364
tp1268
sI5006
(F39.892482
F116.168639
tp1269
sI7314
(F39.894117
F116.389086
tp1270
sI7315
(F40.221191
F116.166621
tp1271
sI4627
(F40.261431
F117.241561
tp1272
sI2454
(F39.916911
F116.221191
tp1273
sI2327
(F39.913063
F116.240001
tp1274
sI9754
(F39.860461
F116.454247
tp1275
sI1692
(F39.914428
F116.200261
tp1276
sI5405
(F39.841471
F116.303191
tp1277
sI10911
(F39.907875
F116.193371
tp1278
sI8742
(F39.888801
F116.229451
tp1279
sI1063
(F39.916749
F116.212552
tp1280
sI3240
(F39.890131
F116.257941
tp1281
sI2439
(F39.902431
F116.209153
tp1282
sI1581
(F39.91171
F116.185
tp1283
sI1582
(F39.912403
F116.185929
tp1284
sI12722
(F39.907311
F116.194185
tp1285
sI1907
(F39.829337
F116.165815
tp1286
sI4535
(F39.890221
F116.165971
tp1287
sI824
(F39.975834
F116.213048
tp1288
sI2105
(F39.912504
F116.193421
tp1289
sI2106
(F39.907001
F116.194588
tp1290
sI5693
(F39.896171
F116.186511
tp1291
sI6824
(F39.910401
F116.216961
tp1292
sI245
(F39.920998
F116.179973
tp1293
sI3075
(F39.906106
F116.318348
tp1294
sI9281
(F39.905232
F116.212581
tp1295
sI4427
(F39.932712
F116.177671
tp1296
sI10180
(F39.899493
F116.213451
tp1297
sI837
(F39.961651
F116.211331
tp1298
sI839
(F39.905401
F116.188921
tp1299
sI4296
(F39.905002
F116.213769
tp1300
sI457
(F39.928081
F116.111181
tp1301
sI587
(F39.932655
F116.148338
tp1302
sI3347
(F39.906668
F116.208223
tp1303
sI12238
(F39.943891
F116.370621
tp1304
sI13264
(F39.905474
F116.343077
tp1305
sI312
(F40.038827
F116.284754
tp1306
sI11988
(F39.905455
F116.211322
tp1307
sI398
(F39.919273
F116.157944
tp1308
sI343
(F39.910432
F116.194304
tp1309
sI3289
(F40.004816
F116.485215
tp1310
sI1114
(F39.894491
F116.435461
tp1311
sI3291
(F39.902092
F116.203613
tp1312
sI3292
(F39.902174
F116.203461
tp1313
sI1597
(F39.904887
F116.264391
tp1314
sI6878
(F39.899612
F116.182301
tp1315
sI1633
(F39.926301
F116.201701
tp1316
sI8290
(F39.901061
F116.214841
tp1317
sI4006
(F39.905291
F116.214451
tp1318
sI7145
(F39.890138
F116.104312
tp1319
sI6938
(F39.901278
F116.203381
tp1320
sI167
(F39.907212
F116.180056
tp1321
sI2668
(F39.924135
F116.216988
tp1322
sI5743
(F39.932949
F116.146729
tp1323
sI808
(F39.910608
F116.230725
tp1324
sI627
(F39.981536
F116.198601
tp1325
sI3700
(F39.883719
F116.205249
tp1326
sI2165
(F39.895818
F116.194264
tp1327
sI4201
(F39.911131
F116.198842
tp1328
sI3290
(F39.905008
F116.207661
tp1329
sI380
(F39.934258
F116.106839
tp1330
sI1535
(F39.898571
F116.247561
tp1331
ssI12112
(dp1332
I3200
(F39.905797
F116.420669
tp1333
sI2112
(F39.906601
F116.385001
tp1334
sI2070
(F39.905691
F116.504651
tp1335
sI4235
(F39.880425
F116.428836
tp1336
sI3629
(F39.905278
F116.434722
tp1337
sI7058
(F39.901239
F116.550811
tp1338
sI5064
(F39.905521
F116.492603
tp1339
sI5142
(F39.905639
F116.638833
tp1340
sI4631
(F39.907544
F116.407639
tp1341
sI4378
(F39.905081
F116.518261
tp1342
sI4251
(F39.892701
F116.638169
tp1343
sI2845
(F39.906668
F116.444113
tp1344
sI1822
(F39.942983
F116.103042
tp1345
sI1567
(F39.912532
F116.370955
tp1346
sI1056
(F39.906204
F116.433678
tp1347
sI5153
(F39.907001
F116.510001
tp1348
sI1058
(F39.868681
F116.677221
tp1349
sI4315
(F39.940448
F116.648138
tp1350
sI1573
(F39.863331
F116.361471
tp1351
sI9640
(F39.738084
F116.335834
tp1352
sI169
(F39.904694
F116.368361
tp1353
sI170
(F39.920961
F116.365091
tp1354
sI2733
(F39.887972
F116.647472
tp1355
sI1110
(F39.900758
F116.497978
tp1356
sI4785
(F39.889167
F116.471667
tp1357
sI611
(F39.920978
F116.633564
tp1358
sI1077
(F39.907001
F116.490001
tp1359
sI4791
(F39.976582
F116.575974
tp1360
sI2120
(F40.202736
F116.232225
tp1361
sI4665
(F39.858389
F116.714194
tp1362
sI2783
(F39.908441
F116.473041
tp1363
sI9148
(F39.907501
F116.446111
tp1364
sI5949
(F39.939901
F116.681459
tp1365
sI190
(F39.938501
F116.685101
tp1366
sI2879
(F39.901841
F116.609571
tp1367
sI1344
(F39.901581
F116.413143
tp1368
sI800
(F39.910001
F116.404444
tp1369
sI2370
(F39.909241
F116.508231
tp1370
sI348
(F39.923333
F116.431389
tp1371
sI2628
(F39.909405
F116.445409
tp1372
sI2117
(F39.909167
F116.552778
tp1373
sI1734
(F39.912861
F116.464971
tp1374
sI8904
(F39.886351
F116.564571
tp1375
sI1477
(F39.895593
F116.638673
tp1376
sI5047
(F39.912971
F116.488351
tp1377
sI2239
(F39.939444
F116.432222
tp1378
sI12112
(F39.907501
F116.448889
tp1379
sI4817
(F39.899167
F116.485556
tp1380
sI3666
(F39.931667
F116.485278
tp1381
sI1235
(F39.906261
F116.607671
tp1382
sI838
(F39.905446
F116.185616
tp1383
sI1285
(F39.900358
F116.411949
tp1384
sI1623
(F39.978101
F116.510001
tp1385
sI1496
(F39.821581
F116.309611
tp1386
sI2428
(F39.917681
F116.466621
tp1387
sI4314
(F39.935583
F116.658361
tp1388
sI5595
(F39.910581
F116.583662
tp1389
sI8668
(F39.865701
F116.265421
tp1390
sI221
(F39.906701
F116.444001
tp1391
sI10206
(F39.905621
F116.420141
tp1392
sI3579
(F39.907722
F116.469472
tp1393
sI4448
(F39.910833
F116.518333
tp1394
sI6422
(F39.909167
F116.405556
tp1395
sI739
(F40.206141
F116.235221
tp1396
sI2916
(F39.912031
F116.503481
tp1397
sI1765
(F39.912028
F116.469601
tp1398
sI3558
(F39.914651
F116.685043
tp1399
sI3559
(F39.879556
F116.661139
tp1400
sI860
(F39.867333
F116.655944
tp1401
sI5865
(F39.911944
F116.533333
tp1402
sI7659
(F39.809225
F116.308884
tp1403
sI4091
(F39.869071
F116.685798
tp1404
sI1638
(F39.890751
F116.633722
tp1405
sI4337
(F39.911701
F116.548001
tp1406
sI8178
(F39.868917
F116.464056
tp1407
sI4083
(F39.971389
F116.441056
tp1408
sI5364
(F39.899443
F116.543961
tp1409
sI2677
(F39.916389
F116.598611
tp1410
sI2546
(F39.854691
F116.482911
tp1411
sI2388
(F39.849928
F116.476628
tp1412
sI2555
(F39.935028
F116.669583
tp1413
sI2427
(F39.909364
F116.384518
tp1414
sI2556
(F39.927831
F116.671331
tp1415
sI255
(F39.915361
F116.455167
tp1416
ssI12241
(dp1417
I641
(F39.963161
F116.298161
tp1418
sI3202
(F39.774811
F116.375571
tp1419
sI3459
(F40.000944
F116.275583
tp1420
sI645
(F39.774788
F116.375984
tp1421
sI5768
(F39.995101
F116.293871
tp1422
sI8713
(F39.940081
F116.343031
tp1423
sI8330
(F39.972867
F116.379727
tp1424
sI11276
(F40.079644
F116.227501
tp1425
sI10178
(F40.129478
F116.654556
tp1426
sI143
(F39.994281
F116.290031
tp1427
sI8208
(F39.937631
F116.327521
tp1428
sI792
(F39.971211
F116.383611
tp1429
sI3090
(F40.014601
F116.282231
tp1430
sI1684
(F39.994086
F116.295933
tp1431
sI4117
(F40.091981
F116.292361
tp1432
sI2559
(F39.981577
F116.381982
tp1433
sI5399
(F39.974321
F116.296991
tp1434
sI3224
(F40.131494
F116.650216
tp1435
sI5273
(F39.978501
F116.215381
tp1436
sI26
(F39.939791
F116.352901
tp1437
sI6812
(F40.044671
F116.410021
tp1438
sI5274
(F40.008871
F116.264321
tp1439
sI7966
(F39.953461
F116.185081
tp1440
sI4127
(F40.053791
F116.295191
tp1441
sI4128
(F39.933275
F116.446783
tp1442
sI10469
(F39.931881
F116.332251
tp1443
sI9508
(F40.026331
F116.298111
tp1444
sI7463
(F39.959331
F116.346841
tp1445
sI7679
(F39.971828
F116.304551
tp1446
sI2089
(F40.112756
F116.274155
tp1447
sI7722
(F39.995471
F116.327579
tp1448
sI3630
(F39.946746
F116.349402
tp1449
sI4271
(F40.542612
F116.358891
tp1450
sI6067
(F39.950181
F116.228683
tp1451
sI286
(F40.026282
F116.298005
tp1452
sI3766
(F40.004694
F116.320916
tp1453
sI7817
(F40.124321
F116.409271
tp1454
sI5524
(F40.133482
F116.656043
tp1455
sI9657
(F39.957311
F116.308911
tp1456
sI6714
(F39.949014
F116.345597
tp1457
sI3359
(F39.997552
F116.307619
tp1458
sI6716
(F39.934466
F116.285833
tp1459
sI11072
(F40.437321
F115.976971
tp1460
sI3778
(F39.90817
F116.37318
tp1461
sI2500
(F39.999621
F116.364841
tp1462
sI965
(F40.093968
F116.300147
tp1463
sI5929
(F40.106841
F116.407261
tp1464
sI5358
(F39.980424
F116.368402
tp1465
sI8137
(F39.935073
F116.363809
tp1466
sI322
(F40.054485
F116.609085
tp1467
sI12241
(F40.415528
F116.014639
tp1468
sI12242
(F39.847241
F116.675331
tp1469
sI341
(F39.913764
F116.193466
tp1470
sI7140
(F40.459888
F115.960472
tp1471
sI4953
(F40.249503
F116.259322
tp1472
sI7514
(F39.910421
F116.456121
tp1473
sI8283
(F39.985556
F116.285278
tp1474
sI1372
(F39.985556
F116.285277
tp1475
sI5469
(F39.850371
F116.430521
tp1476
sI6622
(F40.027751
F116.294381
tp1477
sI1375
(F39.938671
F116.195071
tp1478
sI3040
(F39.997501
F116.307751
tp1479
sI2448
(F39.964001
F116.310751
tp1480
sI5988
(F39.943961
F116.207111
tp1481
sI9317
(F39.990341
F116.299791
tp1482
sI7143
(F39.906501
F116.104061
tp1483
sI4841
(F40.088481
F116.280501
tp1484
sI1002
(F39.982111
F116.300571
tp1485
sI7148
(F40.117131
F116.418801
tp1486
sI7149
(F39.937711
F116.357711
tp1487
sI4846
(F39.923345
F116.304663
tp1488
sI3780
(F39.990728
F116.304583
tp1489
sI6390
(F39.987571
F116.298611
tp1490
sI7287
(F39.933631
F116.187101
tp1491
sI3209
(F39.890021
F116.346761
tp1492
sI2809
(F40.004161
F116.271071
tp1493
sI1146
(F39.996667
F116.284528
tp1494
sI12667
(F39.988794
F116.305958
tp1495
sI1518
(F39.954007
F116.238686
tp1496
sI4821
(F40.022548
F116.287783
tp1497
ssI12370
(dp1498
I320
(F40.087021
F116.589031
tp1499
sI7427
(F40.148391
F116.631631
tp1500
sI5380
(F40.111944
F116.654444
tp1501
sI3218
(F40.120135
F116.616215
tp1502
sI5256
(F40.113647
F116.665769
tp1503
sI3069
(F40.119498
F116.579673
tp1504
sI6028
(F40.137674
F116.655333
tp1505
sI7312
(F40.164201
F116.629101
tp1506
sI3217
(F40.121407
F116.663025
tp1507
sI274
(F40.134172
F116.634261
tp1508
sI276
(F40.131581
F116.650061
tp1509
sI366
(F40.171028
F116.652728
tp1510
sI3225
(F40.045979
F116.741923
tp1511
sI1946
(F40.117141
F116.646831
tp1512
sI5787
(F40.132821
F116.618931
tp1513
sI4381
(F40.170041
F116.638081
tp1514
sI1183
(F40.148824
F116.827082
tp1515
sI5280
(F40.102341
F116.574331
tp1516
sI3355
(F40.167023
F116.641403
tp1517
sI3113
(F40.090101
F116.557001
tp1518
sI285
(F40.100931
F116.694631
tp1519
sI2224
(F40.107123
F116.656841
tp1520
sI2481
(F40.130691
F116.682231
tp1521
sI2482
(F40.125281
F116.646162
tp1522
sI4789
(F40.129285
F116.658582
tp1523
sI1974
(F40.116355
F116.654772
tp1524
sI2103
(F39.722331
F116.144855
tp1525
sI2232
(F40.197128
F116.606091
tp1526
sI2233
(F40.180551
F116.605081
tp1527
sI1978
(F40.127725
F116.660859
tp1528
sI3743
(F40.044591
F116.614791
tp1529
sI2236
(F40.125521
F116.585291
tp1530
sI1854
(F40.124983
F116.636742
tp1531
sI1855
(F40.152481
F116.668161
tp1532
sI6208
(F40.136932
F116.638883
tp1533
sI5441
(F40.135461
F116.602841
tp1534
sI1856
(F40.120781
F116.637381
tp1535
sI3395
(F40.032501
F116.723331
tp1536
sI9119
(F40.102669
F116.544975
tp1537
sI1095
(F40.139881
F116.649231
tp1538
sI1096
(F40.160051
F116.665181
tp1539
sI3580
(F40.135882
F116.644993
tp1540
sI2123
(F40.075281
F116.133031
tp1541
sI1362
(F40.120921
F116.659301
tp1542
sI3661
(F40.084801
F116.569001
tp1543
sI1361
(F40.128222
F116.646611
tp1544
sI12370
(F40.127722
F116.646452
tp1545
sI1748
(F40.128458
F116.627983
tp1546
sI11606
(F39.996351
F116.306031
tp1547
sI3543
(F40.175361
F116.638631
tp1548
sI8156
(F40.125506
F116.646456
tp1549
sI698
(F40.129792
F116.641181
tp1550
sI5983
(F40.124944
F116.644528
tp1551
sI5984
(F40.129472
F116.644611
tp1552
sI7527
(F40.119389
F116.641306
tp1553
sI2792
(F40.117331
F116.631481
tp1554
sI5609
(F40.099441
F116.521521
tp1555
sI5611
(F40.088871
F116.510931
tp1556
sI7863
(F39.927381
F116.438081
tp1557
sI2414
(F40.121511
F116.591301
tp1558
sI367
(F40.205599
F116.649678
tp1559
sI5600
(F40.126992
F116.613283
tp1560
sI3064
(F40.101071
F116.617671
tp1561
sI3578
(F40.106759
F116.662025
tp1562
sI6523
(F40.125611
F116.562671
tp1563
sI3068
(F40.117052
F116.570183
tp1564
sI8957
(F40.112891
F116.580831
tp1565
ssI12243
(dp1566
I1024
(F40.138661
F116.686561
tp1567
sI1025
(F39.942491
F116.264969
tp1568
sI8322
(F39.914356
F116.270733
tp1569
sI4103
(F39.936699
F116.266808
tp1570
sI8775
(F39.879032
F116.219351
tp1571
sI4588
(F40.448029
F115.961029
tp1572
sI4106
(F39.918491
F116.251981
tp1573
sI3083
(F39.926429
F116.284757
tp1574
sI12
(F39.991325
F116.202392
tp1575
sI2320
(F39.932381
F116.270761
tp1576
sI5138
(F39.922518
F116.274749
tp1577
sI1555
(F39.932646
F116.275604
tp1578
sI532
(F39.956246
F116.423477
tp1579
sI5784
(F39.928411
F116.251211
tp1580
sI7323
(F39.927182
F116.272428
tp1581
sI1438
(F39.965778
F116.240667
tp1582
sI3871
(F39.924571
F116.271481
tp1583
sI3872
(F39.953321
F116.498161
tp1584
sI5282
(F39.951834
F116.220024
tp1585
sI11291
(F39.944458
F116.271157
tp1586
sI9764
(F39.955556
F116.285389
tp1587
sI165
(F39.951083
F116.192139
tp1588
sI2854
(F39.94273
F116.29676
tp1589
sI3241
(F39.888878
F116.265653
tp1590
sI6058
(F39.725831
F116.141202
tp1591
sI5895
(F39.930551
F116.294951
tp1592
sI1970
(F39.877356
F116.256364
tp1593
sI1647
(F39.932541
F116.218451
tp1594
sI5428
(F39.919836
F116.264386
tp1595
sI3486
(F39.869541
F116.272108
tp1596
sI2615
(F39.978333
F116.428889
tp1597
sI5373
(F39.922203
F116.283357
tp1598
sI7483
(F39.948741
F116.253011
tp1599
sI1226
(F39.953581
F116.241731
tp1600
sI3262
(F39.943551
F116.203282
tp1601
sI9535
(F39.894566
F116.340644
tp1602
sI2624
(F39.963581
F116.346111
tp1603
sI4288
(F39.959722
F116.201111
tp1604
sI5771
(F39.933891
F116.278311
tp1605
sI1988
(F39.922897
F116.311453
tp1606
sI3271
(F39.892198
F116.266029
tp1607
sI1224
(F39.939242
F116.237355
tp1608
sI3402
(F39.982936
F116.272627
tp1609
sI5195
(F39.931751
F116.323756
tp1610
sI4557
(F39.938305
F116.288416
tp1611
sI5070
(F39.932301
F116.247431
tp1612
sI11858
(F39.98583333
F116.3088889
tp1613
sI12243
(F39.924351
F116.279371
tp1614
sI10197
(F39.923491
F116.293791
tp1615
sI5720
(F39.941116
F116.286113
tp1616
sI4193
(F40.060101
F116.440901
tp1617
sI5090
(F39.819741
F116.282731
tp1618
sI6075
(F39.941921
F116.272341
tp1619
sI5864
(F39.929972
F116.222361
tp1620
sI2410
(F39.928141
F116.298621
tp1621
sI8427
(F39.921311
F116.292822
tp1622
sI2540
(F39.924701
F116.257001
tp1623
sI9106
(F39.949472
F116.266251
tp1624
sI1646
(F39.931355
F116.22938
tp1625
sI1519
(F39.946927
F116.242154
tp1626
sI3316
(F39.919983
F116.287291
tp1627
sI2331
(F39.910225
F116.272034
tp1628
sI4372
(F39.838291
F116.279577
tp1629
sI3322
(F39.874464
F116.330419
tp1630
sI3323
(F39.934201
F116.297431
tp1631
sI2026
(F39.948761
F116.227611
tp1632
sI7765
(F39.943971
F116.264494
tp1633
ssI12372
(dp1634
I7681
(F39.781389
F116.561389
tp1635
sI2
(F39.801306
F116.498444
tp1636
sI6405
(F39.772806
F116.521833
tp1637
sI7430
(F39.753444
F116.538972
tp1638
sI3756
(F39.796451
F116.509071
tp1639
sI30
(F39.785471
F116.532621
tp1640
sI4883
(F39.764097
F116.506637
tp1641
sI9262
(F39.667972
F116.600472
tp1642
sI2711
(F39.820631
F116.533421
tp1643
sI5662
(F39.749325
F116.566908
tp1644
sI5024
(F39.739433
F116.537401
tp1645
sI4385
(F39.744141
F116.529064
tp1646
sI2599
(F39.758871
F116.492311
tp1647
sI11308
(F39.781492
F116.531239
tp1648
sI3757
(F39.794556
F116.514667
tp1649
sI3758
(F39.792917
F116.518608
tp1650
sI10931
(F39.798191
F116.558711
tp1651
sI3125
(F39.752363
F116.532145
tp1652
sI1722
(F39.788668
F116.509535
tp1653
sI1726
(F39.786056
F116.513389
tp1654
sI3775
(F39.793601
F116.575401
tp1655
sI7873
(F39.790417
F116.538414
tp1656
sI5955
(F39.789381
F116.520891
tp1657
sI1733
(F39.800083
F116.501833
tp1658
sI10826
(F39.761494
F116.547651
tp1659
sI719
(F39.751559
F116.539331
tp1660
sI7120
(F39.757282
F116.553761
tp1661
sI13168
(F39.911061
F116.473571
tp1662
sI1747
(F39.805299
F116.456655
tp1663
sI12372
(F39.785333
F116.518444
tp1664
sI5548
(F39.763565
F116.533472
tp1665
sI4035
(F39.797063
F116.438533
tp1666
sI9444
(F39.773101
F116.559641
tp1667
sI2534
(F39.801417
F116.589731
tp1668
sI2535
(F39.794481
F116.518921
tp1669
sI3433
(F39.772667
F116.532111
tp1670
sI9327
(F39.802451
F116.586421
tp1671
sI3952
(F39.657186
F116.628269
tp1672
sI5874
(F39.772222
F116.514001
tp1673
sI10101
(F39.803641
F116.527001
tp1674
sI9206
(F39.642521
F116.714561
tp1675
sI4473
(F40.338545
F116.636666
tp1676
sI4931
(F39.776111
F116.525278
tp1677
ssI12245
(dp1678
I2818
(F40.075724
F116.307566
tp1679
sI1923
(F40.036091
F116.348251
tp1680
sI4868
(F39.875228
F116.203496
tp1681
sI1670
(F39.903611
F116.365217
tp1682
sI1473
(F39.989167
F116.379444
tp1683
sI1672
(F39.938494
F116.361132
tp1684
sI1452
(F39.975806
F116.457611
tp1685
sI3061
(F40.052715
F116.325536
tp1686
sI791
(F39.974721
F116.373551
tp1687
sI5132
(F39.993333
F116.418333
tp1688
sI7821
(F40.008168
F116.374362
tp1689
sI7566
(F40.021831
F116.375761
tp1690
sI2319
(F39.915459
F116.278181
tp1691
sI8594
(F39.736671
F116.124281
tp1692
sI535
(F39.730625
F116.129369
tp1693
sI6681
(F39.977222
F116.371001
tp1694
sI1306
(F40.039633
F116.335108
tp1695
sI8859
(F40.012322
F116.377221
tp1696
sI9116
(F39.991041
F116.213914
tp1697
sI2336
(F39.976087
F116.426981
tp1698
sI304
(F40.004797
F116.380053
tp1699
sI1829
(F40.029872
F116.335205
tp1700
sI4134
(F39.913345
F116.29065
tp1701
sI6311
(F39.958513
F116.365286
tp1702
sI5417
(F40.007362
F116.350695
tp1703
sI4012
(F39.865217
F116.278052
tp1704
sI3120
(F40.027882
F116.309594
tp1705
sI4145
(F39.992193
F116.372687
tp1706
sI4531
(F40.044918
F116.337242
tp1707
sI821
(F40.035268
F116.366211
tp1708
sI2742
(F40.066772
F116.336531
tp1709
sI3721
(F40.030161
F116.342961
tp1710
sI4536
(F40.027397
F116.346427
tp1711
sI442
(F40.019671
F116.402741
tp1712
sI4412
(F40.032333
F116.349722
tp1713
sI1461
(F40.028063
F116.365455
tp1714
sI576
(F40.020169
F116.353776
tp1715
sI2113
(F39.984115
F116.400423
tp1716
sI1602
(F39.967081
F116.402701
tp1717
sI835
(F40.051784
F116.337547
tp1718
sI836
(F40.058768
F116.337192
tp1719
sI4307
(F40.016821
F116.446179
tp1720
sI4937
(F40.048444
F116.322083
tp1721
sI1867
(F40.058051
F116.317851
tp1722
sI1328
(F39.975333
F116.374583
tp1723
sI4944
(F39.962201
F116.378151
tp1724
sI2129
(F40.026871
F116.351851
tp1725
sI4050
(F40.002778
F116.358056
tp1726
sI595
(F40.079691
F116.345849
tp1727
sI2260
(F40.006944
F116.359444
tp1728
sI12245
(F39.962491
F116.380891
tp1729
sI2519
(F39.972721
F116.379381
tp1730
sI2131
(F40.029541
F116.352621
tp1731
sI5723
(F40.019111
F116.373278
tp1732
sI9851
(F39.967222
F116.181389
tp1733
sI3153
(F40.028672
F116.326501
tp1734
sI2664
(F39.944139
F116.372908
tp1735
sI1084
(F39.936401
F116.524001
tp1736
sI3946
(F39.969111
F116.372583
tp1737
sI4199
(F40.015002
F116.363181
tp1738
sI8658
(F40.009801
F116.354001
tp1739
sI7150
(F40.023241
F116.410261
tp1740
sI2092
(F40.082049
F116.313862
tp1741
sI496
(F39.987931
F116.398311
tp1742
sI12607
(F39.903581
F116.365181
tp1743
sI2259
(F39.858751
F116.281221
tp1744
sI2455
(F40.109271
F116.346916
tp1745
sI6645
(F39.898886
F116.363269
tp1746
sI8554
(F40.027194
F116.344722
tp1747
sI3760
(F39.737057
F116.124168
tp1748
sI248
(F40.084215
F116.300755
tp1749
sI249
(F40.079774
F116.301889
tp1750
sI3793
(F40.025181
F116.346001
tp1751
sI7291
(F39.735031
F116.129501
tp1752
sI125
(F40.039162
F116.339723
tp1753
sI126
(F40.035333
F116.343291
tp1754
sI2047
(F40.031881
F116.350871
tp1755
ssI12122
(dp1756
I1153
(F39.863413
F116.415198
tp1757
sI516
(F39.862171
F116.407211
tp1758
sI2566
(F39.837185
F116.407241
tp1759
sI2567
(F39.836372
F116.413573
tp1760
sI4745
(F39.849722
F116.398056
tp1761
sI4747
(F39.844571
F116.420231
tp1762
sI1805
(F39.835821
F116.395291
tp1763
sI2323
(F39.844028
F116.420097
tp1764
sI150
(F39.874917
F116.415444
tp1765
sI6937
(F39.864722
F116.419722
tp1766
sI665
(F39.838344
F116.412383
tp1767
sI666
(F40.012951
F116.312541
tp1768
sI2975
(F39.843381
F116.385121
tp1769
sI2054
(F39.841278
F116.406611
tp1770
sI41
(F39.858339
F116.391589
tp1771
sI1671
(F39.848501
F116.393361
tp1772
sI477
(F39.829331
F116.441781
tp1773
sI3784
(F39.842658
F116.381751
tp1774
sI4403
(F39.843633
F116.389555
tp1775
sI4404
(F39.839041
F116.396948
tp1776
sI3383
(F39.842721
F116.410341
tp1777
sI3004
(F39.918847
F116.434019
tp1778
sI3517
(F39.848131
F116.409321
tp1779
sI5694
(F39.842911
F116.315721
tp1780
sI2499
(F39.845694
F116.393251
tp1781
sI196
(F39.837521
F116.388691
tp1782
sI456
(F39.829001
F116.403751
tp1783
sI329
(F39.843881
F116.403501
tp1784
sI6730
(F39.844201
F116.393411
tp1785
sI4171
(F39.846351
F116.400171
tp1786
sI5068
(F39.838389
F116.412556
tp1787
sI5602
(F39.840791
F116.414251
tp1788
sI1365
(F39.840001
F116.406111
tp1789
sI1366
(F39.848631
F116.408101
tp1790
sI12122
(F39.840111
F116.410001
tp1791
sI4445
(F39.850972
F116.407111
tp1792
sI5342
(F40.086836
F116.388627
tp1793
sI5285
(F39.844591
F116.408481
tp1794
sI3425
(F39.864083
F116.400001
tp1795
sI738
(F39.857778
F116.391111
tp1796
sI227
(F39.839131
F116.406871
tp1797
sI1124
(F39.842251
F116.422061
tp1798
sI5226
(F39.895001
F116.413056
tp1799
sI2542
(F39.843812
F116.415093
tp1800
sI1520
(F39.867501
F116.401667
tp1801
sI1193
(F40.059471
F116.364391
tp1802
ssI12124
(dp1803
I3073
(F39.936181
F116.333351
tp1804
sI388
(F39.877345
F116.368618
tp1805
sI902
(F39.851302
F116.365774
tp1806
sI2568
(F39.897554
F116.368873
tp1807
sI2697
(F39.906401
F116.397001
tp1808
sI1930
(F39.855389
F116.415383
tp1809
sI4875
(F39.887246
F116.366997
tp1810
sI4240
(F39.937361
F116.332167
tp1811
sI18
(F39.922625
F116.427309
tp1812
sI1171
(F39.966667
F116.381111
tp1813
sI1172
(F39.911194
F116.366929
tp1814
sI918
(F39.974108
F116.314222
tp1815
sI5271
(F39.906121
F116.347214
tp1816
sI1924
(F40.035417
F116.349278
tp1817
sI27
(F39.921694
F116.366694
tp1818
sI28
(F39.876639
F116.368583
tp1819
sI2409
(F39.850556
F116.365444
tp1820
sI1568
(F39.902584
F116.372378
tp1821
sI1315
(F39.882891
F116.305111
tp1822
sI4772
(F39.939252
F116.411172
tp1823
sI933
(F39.957366
F116.418383
tp1824
sI5286
(F39.937657
F116.327522
tp1825
sI1197
(F39.943641
F116.368641
tp1826
sI175
(F39.801591
F116.340701
tp1827
sI3464
(F39.948001
F116.368001
tp1828
sI3634
(F39.947901
F116.388001
tp1829
sI3635
(F39.931101
F116.350001
tp1830
sI4534
(F39.922908
F116.373666
tp1831
sI2676
(F39.834583
F116.364861
tp1832
sI3131
(F39.903501
F116.422001
tp1833
sI1852
(F39.899501
F116.413001
tp1834
sI2786
(F39.941195
F116.347862
tp1835
sI5569
(F39.844167
F116.364501
tp1836
sI1474
(F39.900556
F116.403611
tp1837
sI963
(F39.999271
F116.286891
tp1838
sI5197
(F39.940278
F116.429528
tp1839
sI3789
(F39.931901
F116.429001
tp1840
sI3671
(F39.930734
F116.493829
tp1841
sI473
(F39.906851
F116.369172
tp1842
sI2650
(F39.952778
F116.389722
tp1843
sI3675
(F39.906552
F116.370739
tp1844
sI12124
(F39.912001
F116.372333
tp1845
sI1317
(F39.902778
F116.379167
tp1846
sI7136
(F39.945747
F116.332655
tp1847
sI354
(F39.933167
F116.366333
tp1848
sI355
(F39.914222
F116.367583
tp1849
sI2148
(F39.909719
F116.366376
tp1850
sI3174
(F39.957111
F116.317417
tp1851
sI2918
(F39.933304
F116.396303
tp1852
sI744
(F39.906563
F116.347903
tp1853
sI1513
(F39.899101
F116.390001
tp1854
sI2156
(F39.898056
F116.394167
tp1855
sI1136
(F39.939701
F116.429001
tp1856
sI4721
(F39.897778
F116.367639
tp1857
sI4211
(F39.898801
F116.379001
tp1858
sI244
(F39.771806
F116.324083
tp1859
sI1812
(F39.901994
F116.386951
tp1860
sI3063
(F39.897501
F116.387222
tp1861
sI20
(F39.932805
F116.424907
tp1862
sI6121
(F39.921681
F116.359351
tp1863
sI4732
(F39.794921
F116.352211
tp1864
sI2429
(F39.867965
F116.378247
tp1865
ssI12261
(dp1866
I7170
(F40.200491
F116.179253
tp1867
sI5129
(F40.226655
F116.226144
tp1868
sI9231
(F40.055072
F116.313491
tp1869
sI7703
(F40.171594
F116.244031
tp1870
sI5145
(F40.136153
F116.132506
tp1871
sI6172
(F40.100662
F116.276404
tp1872
sI33
(F40.216718
F116.216522
tp1873
sI2085
(F40.029814
F116.317095
tp1874
sI6182
(F40.056215
F116.327246
tp1875
sI551
(F40.240347
F116.117703
tp1876
sI5161
(F40.133908
F116.260049
tp1877
sI2090
(F40.073638
F116.310218
tp1878
sI2093
(F40.073022
F116.316664
tp1879
sI2098
(F40.026111
F116.304511
tp1880
sI2610
(F40.231194
F116.118111
tp1881
sI1081
(F40.052918
F116.369476
tp1882
sI6205
(F40.140561
F116.262416
tp1883
sI9285
(F40.134251
F116.252193
tp1884
sI2630
(F40.035833
F116.309445
tp1885
sI2119
(F40.206013
F116.223627
tp1886
sI8776
(F40.037177
F116.370581
tp1887
sI74
(F40.076948
F116.302963
tp1888
sI5199
(F40.112621
F116.289151
tp1889
sI2135
(F40.038109
F116.323645
tp1890
sI4186
(F39.993301
F116.385501
tp1891
sI12261
(F40.072862
F116.403417
tp1892
sI2141
(F40.118531
F116.267087
tp1893
sI6238
(F40.034261
F116.358151
tp1894
sI2662
(F40.145939
F116.252157
tp1895
sI2663
(F40.081833
F116.294194
tp1896
sI10344
(F40.050472
F116.321388
tp1897
sI9837
(F40.045489
F116.345215
tp1898
sI3187
(F40.043501
F116.298251
tp1899
sI1652
(F40.125517
F116.261944
tp1900
sI3194
(F40.108971
F116.268313
tp1901
sI635
(F40.213869
F116.234626
tp1902
sI636
(F40.212898
F116.228058
tp1903
sI5764
(F40.112222
F116.285388
tp1904
sI6789
(F40.369497
F115.888276
tp1905
sI2701
(F40.212647
F116.251881
tp1906
sI10383
(F40.036487
F116.340494
tp1907
sI145
(F39.787638
F116.493917
tp1908
sI4242
(F40.023842
F116.331927
tp1909
sI6292
(F40.033701
F116.330251
tp1910
sI1685
(F40.039607
F116.316384
tp1911
sI1686
(F40.034031
F116.319871
tp1912
sI4760
(F40.040439
F116.349094
tp1913
sI7836
(F40.154301
F116.250241
tp1914
sI794
(F40.034579
F116.288291
tp1915
sI158
(F40.103275
F116.284444
tp1916
sI160
(F40.083291
F116.322045
tp1917
sI9897
(F39.895711
F116.397971
tp1918
sI10410
(F40.031751
F116.368056
tp1919
sI967
(F40.087389
F116.300231
tp1920
sI4270
(F40.409112
F115.939973
tp1921
sI1712
(F40.156415
F116.244773
tp1922
sI1713
(F40.150118
F116.264351
tp1923
sI1719
(F40.218981
F116.230971
tp1924
sI2744
(F40.084444
F116.331417
tp1925
sI3769
(F40.461806
F115.968917
tp1926
sI5315
(F40.055791
F116.324361
tp1927
sI712
(F39.790501
F116.483001
tp1928
sI1229
(F40.209889
F116.228222
tp1929
sI1230
(F40.220667
F116.239556
tp1930
sI11981
(F40.027911
F116.335911
tp1931
sI1232
(F40.462333
F115.980861
tp1932
sI5329
(F40.095381
F116.283131
tp1933
sI5330
(F40.064501
F116.279917
tp1934
sI740
(F40.210773
F116.239262
tp1935
sI741
(F40.211233
F116.239117
tp1936
sI742
(F40.212442
F116.246563
tp1937
sI1771
(F40.222097
F116.220571
tp1938
sI4854
(F40.016147
F116.296344
tp1939
sI2807
(F40.120147
F116.254641
tp1940
sI2808
(F40.125971
F116.252163
tp1941
sI4857
(F40.216801
F116.203957
tp1942
sI2811
(F40.220905
F116.213595
tp1943
sI6397
(F40.041002
F116.315417
tp1944
sI6398
(F40.170417
F116.269783
tp1945
sI4865
(F40.504195
F116.054002
tp1946
sI2819
(F40.235611
F116.124289
tp1947
sI3334
(F40.065611
F116.322079
tp1948
sI2826
(F40.197801
F116.222841
tp1949
sI1294
(F40.131848
F116.266921
tp1950
sI1816
(F40.145014
F116.293074
tp1951
sI3716
(F40.028271
F116.341911
tp1952
sI1818
(F40.152972
F116.298361
tp1953
sI3357
(F40.183412
F116.232075
tp1954
sI2343
(F40.463311
F115.970806
tp1955
sI296
(F40.043761
F116.285851
tp1956
sI1322
(F40.047312
F116.333848
tp1957
sI299
(F40.098774
F116.302953
tp1958
sI301
(F40.122783
F116.319914
tp1959
sI2352
(F40.087491
F116.324951
tp1960
sI2806
(F40.081066
F116.342998
tp1961
sI5426
(F40.106016
F116.276689
tp1962
sI819
(F40.062711
F116.295361
tp1963
sI3380
(F40.032181
F116.340731
tp1964
sI822
(F40.041361
F116.373921
tp1965
sI1323
(F40.052505
F116.173674
tp1966
sI5434
(F39.790141
F116.482981
tp1967
sI6623
(F40.030933
F116.332812
tp1968
sI2295
(F40.187917
F117.153667
tp1969
sI5942
(F40.019626
F116.456913
tp1970
sI4425
(F40.214867
F116.247008
tp1971
sI1866
(F40.168968
F116.311797
tp1972
sI1870
(F40.096239
F116.272141
tp1973
sI5427
(F40.077062
F116.325645
tp1974
sI5433
(F39.787601
F116.493901
tp1975
sI863
(F40.051301
F116.311001
tp1976
sI8034
(F39.898054
F116.219284
tp1977
sI1254
(F40.034978
F116.306693
tp1978
sI2921
(F39.792501
F116.486851
tp1979
sI3436
(F40.050981
F116.320021
tp1980
sI4837
(F40.043889
F116.473056
tp1981
sI2422
(F40.066778
F116.342167
tp1982
sI5781
(F40.069228
F116.299637
tp1983
sI6530
(F39.947101
F116.309841
tp1984
sI2436
(F40.464911
F115.992917
tp1985
sI3973
(F40.034231
F116.327471
tp1986
sI1430
(F40.223035
F116.276701
tp1987
sI9029
(F40.015131
F116.425051
tp1988
sI2978
(F40.215364
F116.240961
tp1989
sI1447
(F40.183415
F116.161574
tp1990
sI5034
(F40.136843
F116.314051
tp1991
sI2990
(F40.039222
F116.339751
tp1992
sI7604
(F40.146371
F116.273861
tp1993
sI1696
(F40.145755
F116.302861
tp1994
sI246
(F40.158691
F116.266905
tp1995
sI966
(F40.089172
F116.302284
tp1996
sI5575
(F40.022108
F116.307999
tp1997
sI6090
(F40.209278
F116.216359
tp1998
sI3831
(F40.216783
F116.256904
tp1999
sI3026
(F40.099121
F116.338071
tp2000
sI3028
(F40.068287
F116.333102
tp2001
sI4055
(F40.057821
F116.340871
tp2002
sI5593
(F40.227885
F116.146042
tp2003
sI3549
(F40.447056
F115.968972
tp2004
sI11743
(F40.044503
F116.334486
tp2005
sI1505
(F40.058111
F116.330667
tp2006
sI1506
(F40.055121
F116.307781
tp2007
sI6116
(F40.066421
F116.341311
tp2008
sI3557
(F40.098981
F116.285883
tp2009
sI4589
(F40.167991
F116.314012
tp2010
sI4594
(F40.166291
F116.343241
tp2011
sI3573
(F40.183997
F116.191357
tp2012
sI1015
(F40.213888
F116.221534
tp2013
sI7164
(F40.141792
F116.258313
tp2014
ssI12136
(dp2015
I2052
(F39.971251
F116.242881
tp2016
sI13
(F39.991051
F116.213961
tp2017
sI3086
(F39.951361
F116.314194
tp2018
sI1044
(F40.027349
F116.272654
tp2019
sI7706
(F39.960123
F116.292031
tp2020
sI543
(F39.965816
F116.267651
tp2021
sI1575
(F40.034301
F116.326971
tp2022
sI2603
(F39.935693
F116.287512
tp2023
sI3123
(F39.977121
F116.309701
tp2024
sI2623
(F39.945181
F116.290651
tp2025
sI1088
(F39.967201
F116.290001
tp2026
sI9800
(F39.969689
F116.298965
tp2027
sI1097
(F39.966949
F116.275428
tp2028
sI4684
(F39.976491
F116.310071
tp2029
sI2061
(F40.005941
F116.313451
tp2030
sI3154
(F39.957778
F116.276694
tp2031
sI3157
(F39.962275
F116.264013
tp2032
sI441
(F39.984722
F116.374167
tp2033
sI3168
(F40.015621
F116.263531
tp2034
sI6226
(F39.952051
F116.295011
tp2035
sI3175
(F39.957371
F116.317421
tp2036
sI3689
(F39.950792
F116.274811
tp2037
sI1130
(F39.972611
F116.284333
tp2038
sI3188
(F39.960806
F116.280028
tp2039
sI1654
(F39.944701
F116.298801
tp2040
sI2167
(F39.966392
F116.295297
tp2041
sI4730
(F39.974242
F116.313392
tp2042
sI2683
(F40.015201
F116.309001
tp2043
sI1148
(F39.978361
F116.307881
tp2044
sI2173
(F39.960772
F116.293277
tp2045
sI2174
(F39.956389
F116.297028
tp2046
sI2175
(F39.953975
F116.291053
tp2047
sI640
(F39.955661
F116.280091
tp2048
sI3715
(F40.036911
F116.236471
tp2049
sI7958
(F39.877343
F116.371386
tp2050
sI137
(F39.992699
F116.288444
tp2051
sI1162
(F39.988941
F116.349691
tp2052
sI1164
(F39.964377
F116.302038
tp2053
sI141
(F39.996136
F116.308325
tp2054
sI656
(F39.977221
F116.309721
tp2055
sI5265
(F39.972081
F116.300081
tp2056
sI1170
(F39.963449
F116.317091
tp2057
sI5269
(F39.83294
F116.27444
tp2058
sI1687
(F40.030711
F116.311795
tp2059
sI7833
(F40.434317
F116.946293
tp2060
sI1181
(F39.968621
F116.319021
tp2061
sI2218
(F39.967551
F116.324484
tp2062
sI182
(F39.962833
F116.296997
tp2063
sI183
(F39.966052
F116.300866
tp2064
sI4792
(F39.966312
F116.300491
tp2065
sI2079
(F39.990276
F116.304001
tp2066
sI707
(F39.964103
F116.301941
tp2067
sI4810
(F39.969583
F116.301194
tp2068
sI724
(F40.035311
F116.259891
tp2069
sI725
(F40.040531
F116.240591
tp2070
sI2782
(F39.968941
F116.316851
tp2071
sI1259
(F39.979242
F116.314324
tp2072
sI1778
(F39.963511
F116.302121
tp2073
sI251
(F40.088328
F116.287892
tp2074
sI6396
(F39.957657
F116.299483
tp2075
sI6401
(F39.961751
F116.305097
tp2076
sI1067
(F39.978501
F116.321241
tp2077
sI1801
(F39.935221
F116.332762
tp2078
sI5902
(F39.949556
F116.293778
tp2079
sI4367
(F40.048701
F116.225841
tp2080
sI790
(F39.972652
F116.338173
tp2081
sI3033
(F39.935371
F116.402191
tp2082
sI3354
(F39.969281
F116.342371
tp2083
sI1828
(F40.028467
F116.317998
tp2084
sI294
(F39.998725
F116.345373
tp2085
sI1325
(F40.026745
F116.351777
tp2086
sI1843
(F39.971988
F116.356466
tp2087
sI311
(F40.032341
F116.281159
tp2088
sI2372
(F39.955667
F116.282251
tp2089
sI7649
(F39.914901
F116.484002
tp2090
sI1354
(F39.970397
F116.269086
tp2091
sI1165
(F39.966401
F116.308301
tp2092
sI862
(F39.986081
F116.304411
tp2093
sI1889
(F39.971303
F116.202289
tp2094
sI657
(F39.973973
F116.312001
tp2095
sI12136
(F39.960124
F116.292031
tp2096
sI880
(F39.972211
F116.309772
tp2097
sI2417
(F39.965466
F116.319374
tp2098
sI2418
(F39.968931
F116.314691
tp2099
sI6515
(F39.908947
F116.406069
tp2100
sI886
(F39.956701
F116.262571
tp2101
sI3448
(F39.967409
F116.326597
tp2102
sI4988
(F39.969583
F116.295694
tp2103
sI3976
(F39.965736
F116.291764
tp2104
sI5016
(F39.936623
F116.320611
tp2105
sI3491
(F39.970611
F116.300031
tp2106
sI10150
(F39.887111
F116.362751
tp2107
sI2473
(F40.022353
F116.257591
tp2108
sI5550
(F39.956944
F116.286667
tp2109
sI953
(F39.988201
F116.297571
tp2110
sI954
(F39.905025
F116.553971
tp2111
sI957
(F39.959817
F116.281919
tp2112
sI2496
(F39.972221
F116.319905
tp2113
sI2498
(F39.974391
F116.319341
tp2114
sI8645
(F39.965291
F116.301991
tp2115
sI4038
(F39.940222
F116.226625
tp2116
sI1483
(F39.969581
F116.316761
tp2117
sI470
(F39.966444
F116.308175
tp2118
sI1529
(F39.999783
F116.358677
tp2119
sI2521
(F39.959371
F116.295511
tp2120
sI7648
(F39.952111
F116.302641
tp2121
sI481
(F39.944103
F116.319366
tp2122
sI1000
(F39.952222
F116.299444
tp2123
sI6124
(F39.961355
F116.322677
tp2124
sI2541
(F39.989833
F116.359472
tp2125
sI3567
(F39.955519
F116.303491
tp2126
sI6132
(F39.966331
F116.280861
tp2127
sI4089
(F39.977266
F116.318486
tp2128
sI1018
(F39.995408
F116.337291
tp2129
sI2046
(F39.973944
F116.295555
tp2130
ssI12010
(dp2131
I3969
(F40.076231
F116.343981
tp2132
sI3972
(F40.039691
F116.335171
tp2133
sI652
(F40.067121
F116.356997
tp2134
sI4498
(F40.073902
F116.396935
tp2135
sI5780
(F40.067451
F116.389681
tp2136
sI7957
(F40.069201
F116.347261
tp2137
sI5270
(F40.375434
F116.829238
tp2138
sI25
(F39.967278
F116.341583
tp2139
sI164
(F40.099239
F116.362626
tp2140
sI3621
(F40.058061
F116.317471
tp2141
sI3366
(F40.078313
F116.368344
tp2142
sI3367
(F40.077881
F116.361581
tp2143
sI4009
(F40.074011
F116.352511
tp2144
sI1194
(F40.058806
F116.361028
tp2145
sI5803
(F40.083161
F116.351421
tp2146
sI7212
(F39.864321
F116.411371
tp2147
sI5806
(F40.092051
F116.342561
tp2148
sI7731
(F40.069636
F116.376875
tp2149
sI180
(F39.851111
F116.453056
tp2150
sI1460
(F40.065088
F116.349741
tp2151
sI1082
(F40.069536
F116.376875
tp2152
sI1083
(F40.065871
F116.368751
tp2153
sI2876
(F39.864167
F116.411389
tp2154
sI3135
(F40.073592
F116.352491
tp2155
sI2507
(F40.068745
F116.540983
tp2156
sI2252
(F40.058771
F116.382261
tp2157
sI594
(F40.073878
F116.338821
tp2158
sI5717
(F39.980751
F116.301261
tp2159
sI1762
(F40.073684
F116.361527
tp2160
sI8035
(F40.064381
F116.382211
tp2161
sI12010
(F40.064751
F116.401811
tp2162
sI6895
(F40.065201
F116.349747
tp2163
sI7412
(F39.994222
F116.411202
tp2164
sI1918
(F39.893409
F116.650302
tp2165
sI3446
(F40.080237
F116.333338
tp2166
sI1016
(F40.064141
F116.382364
tp2167
sI4346
(F40.079453
F116.355294
tp2168
sI4347
(F40.083294
F116.364858
tp2169
sI509
(F40.069742
F116.348389
tp2170
sI510
(F40.051899
F116.403189
tp2171
ssI12014
(dp2172
I750
(F40.013411
F116.403021
tp2173
sI8196
(F40.064444
F116.409111
tp2174
sI5
(F40.060141
F116.440871
tp2175
sI6
(F40.060141
F116.429891
tp2176
sI5127
(F40.064716
F116.390022
tp2177
sI1931
(F40.066961
F116.402801
tp2178
sI1932
(F40.106783
F116.407182
tp2179
sI1933
(F40.117316
F116.406341
tp2180
sI1678
(F39.888333
F116.416667
tp2181
sI2833
(F40.085511
F116.438341
tp2182
sI12014
(F40.076682
F116.431372
tp2183
sI89
(F39.994722
F116.444166
tp2184
sI5533
(F40.080681
F116.652671
tp2185
sI4
(F40.053594
F116.410886
tp2186
sI6813
(F40.002201
F116.410851
tp2187
sI549
(F40.164223
F116.331244
tp2188
sI3965
(F40.057253
F116.408841
tp2189
sI4394
(F40.056588
F116.395144
tp2190
sI3755
(F40.083111
F116.409778
tp2191
sI302
(F40.064733
F116.410633
tp2192
sI303
(F40.059362
F116.419164
tp2193
sI489
(F40.073251
F116.407991
tp2194
sI371
(F40.064333
F116.429472
tp2195
sI6581
(F40.080692
F116.431636
tp2196
sI443
(F40.007311
F116.411711
tp2197
sI4671
(F40.002558
F116.402492
tp2198
sI8640
(F40.064981
F116.400321
tp2199
sI5953
(F40.076681
F116.431371
tp2200
sI68
(F40.061811
F116.406131
tp2201
sI1605
(F40.076666
F116.409444
tp2202
sI1606
(F40.059203
F116.409425
tp2203
sI4679
(F40.087539
F116.401271
tp2204
sI8520
(F40.081001
F116.448383
tp2205
sI73
(F40.109167
F116.366767
tp2206
sI842
(F40.039071
F116.410178
tp2207
sI5323
(F40.011017
F116.405997
tp2208
sI76
(F40.068651
F116.407711
tp2209
sI80
(F39.984364
F116.411054
tp2210
sI4946
(F40.180883
F116.396183
tp2211
sI467
(F39.959211
F116.372561
tp2212
sI4180
(F40.123171
F116.402531
tp2213
sI213
(F40.057703
F116.409069
tp2214
sI7510
(F40.059531
F116.417371
tp2215
sI3159
(F40.019301
F116.337001
tp2216
sI88
(F39.993077
F116.443124
tp2217
sI1881
(F40.067031
F116.439771
tp2218
sI6619
(F40.075333
F116.439933
tp2219
sI6495
(F40.084017
F116.434251
tp2220
sI98
(F39.982581
F116.440811
tp2221
sI1763
(F40.071501
F116.429501
tp2222
sI1637
(F39.988465
F116.368343
tp2223
sI1934
(F40.061983
F116.406383
tp2224
sI871
(F40.077661
F116.423451
tp2225
sI1128
(F40.081058
F116.398925
tp2226
sI1257
(F40.031508
F116.404209
tp2227
sI483
(F40.016561
F116.410901
tp2228
sI8685
(F40.062381
F116.432241
tp2229
sI5614
(F40.173801
F116.380817
tp2230
sI10223
(F40.080651
F116.431721
tp2231
sI8688
(F39.875833
F116.427501
tp2232
sI4081
(F40.057281
F116.401931
tp2233
sI4595
(F39.997222
F116.424444
tp2234
sI6630
(F40.101537
F116.384434
tp2235
sI5750
(F40.040401
F116.402001
tp2236
sI8183
(F40.101689
F116.378467
tp2237
sI5880
(F40.072032
F116.429538
tp2238
sI4820
(F40.068831
F116.409931
tp2239
sI2858
(F40.074305
F116.400222
tp2240
sI3963
(F40.102973
F116.410806
tp2241
sI3964
(F40.096832
F116.404933
tp2242
sI4906
(F40.088933
F116.422583
tp2243
sI3966
(F40.101822
F116.398219
tp2244
ssI12274
(dp2245
I1664
(F39.938289
F116.357505
tp2246
sI8705
(F39.949611
F116.350602
tp2247
sI1666
(F39.952721
F116.365921
tp2248
sI4611
(F39.975501
F116.400889
tp2249
sI3461
(F39.981827
F116.353472
tp2250
sI9351
(F39.966861
F116.353167
tp2251
sI7182
(F39.977731
F116.350841
tp2252
sI2447
(F39.966797
F116.353025
tp2253
sI7184
(F39.945096
F116.399217
tp2254
sI12946
(F39.970288
F116.363266
tp2255
sI1667
(F39.933102
F116.332755
tp2256
sI4629
(F40.010778
F116.344778
tp2257
sI22
(F39.973611
F116.341944
tp2258
sI5111
(F39.913901
F116.419691
tp2259
sI6682
(F39.983729
F116.363769
tp2260
sI540
(F39.981389
F116.401667
tp2261
sI4125
(F39.974481
F116.333281
tp2262
sI7972
(F39.941211
F116.295311
tp2263
sI2469
(F39.978901
F116.379401
tp2264
sI4263
(F39.978171
F116.362661
tp2265
sI321
(F40.076829
F116.584157
tp2266
sI3253
(F40.031748
F116.414771
tp2267
sI4024
(F39.971041
F116.343561
tp2268
sI577
(F39.97383
F116.34531
tp2269
sI450
(F39.655371
F116.076297
tp2270
sI1989
(F39.960202
F116.359669
tp2271
sI9286
(F39.952305
F116.365958
tp2272
sI9415
(F39.959884
F116.354844
tp2273
sI2635
(F39.978333
F116.384444
tp2274
sI77
(F40.034051
F116.412091
tp2275
sI3407
(F39.977791
F116.363131
tp2276
sI2385
(F39.981761
F116.362988
tp2277
sI5458
(F39.945971
F116.380041
tp2278
sI2387
(F39.982941
F116.349731
tp2279
sI6487
(F39.913001
F116.604381
tp2280
sI6488
(F39.972811
F116.358991
tp2281
sI6489
(F40.357801
F116.805611
tp2282
sI7899
(F39.932981
F116.332771
tp2283
sI6880
(F39.980472
F116.349167
tp2284
sI7040
(F39.952744
F116.277306
tp2285
sI488
(F39.969167
F116.369722
tp2286
sI9383
(F39.973027
F116.359805
tp2287
sI9580
(F39.984405
F116.379406
tp2288
sI751
(F39.971108
F116.384165
tp2289
sI12274
(F39.974522
F116.342857
tp2290
sI10611
(F39.952466
F116.354146
tp2291
sI4341
(F39.976091
F116.362081
tp2292
sI4342
(F39.975838
F116.355281
tp2293
sI503
(F39.955749
F116.348066
tp2294
sI4090
(F39.952361
F116.356163
tp2295
sI1660
(F39.976111
F116.346911
tp2296
sI5117
(F40.026389
F116.412502
tp2297
sI1663
(F39.978539
F116.348902
tp2298
ssI12407
(dp2299
I2562
(F39.838942
F116.372421
tp2300
sI4867
(F39.846389
F116.393056
tp2301
sI4229
(F39.828801
F116.290642
tp2302
sI7852
(F39.8219
F116.3726
tp2303
sI1154
(F39.850635
F116.385047
tp2304
sI1166
(F39.858031
F116.395741
tp2305
sI4054
(F39.845694
F116.465083
tp2306
sI283
(F39.958885
F116.481905
tp2307
sI5148
(F39.801491
F116.444781
tp2308
sI1821
(F39.862485
F116.383604
tp2309
sI2565
(F39.825165
F116.383825
tp2310
sI416
(F39.848911
F116.37498
tp2311
sI6064
(F39.853833
F116.389389
tp2312
sI7715
(F39.828261
F116.342271
tp2313
sI511
(F39.851394
F116.381673
tp2314
sI6087
(F39.853746
F116.374955
tp2315
sI684
(F39.838901
F116.383001
tp2316
sI5167
(F40.144771
F117.112741
tp2317
sI688
(F39.840411
F116.379791
tp2318
sI309
(F40.007251
F116.439391
tp2319
sI3894
(F39.781511
F116.412391
tp2320
sI1465
(F39.850021
F116.412571
tp2321
sI6970
(F40.106114
F116.119263
tp2322
sI5439
(F39.846229
F116.374809
tp2323
sI4033
(F39.928321
F116.467691
tp2324
sI10050
(F39.835001
F116.383671
tp2325
sI12613
(F39.932074
F116.466721
tp2326
sI3783
(F39.848855
F116.374715
tp2327
sI1864
(F39.852701
F116.36001
tp2328
sI4533
(F39.860631
F116.386244
tp2329
sI1783
(F39.833315
F116.386264
tp2330
sI13260
(F39.839431
F116.382486
tp2331
sI9520
(F39.843447
F116.425681
tp2332
sI6481
(F39.856011
F116.366241
tp2333
sI9298
(F39.841641
F116.372121
tp2334
sI2851
(F39.845328
F116.400198
tp2335
sI6740
(F39.841501
F116.368001
tp2336
sI9301
(F39.845721
F116.393251
tp2337
sI7894
(F39.876973
F116.360382
tp2338
sI9529
(F39.853985
F116.391731
tp2339
sI3160
(F39.834687
F116.282036
tp2340
sI5851
(F40.103591
F116.284261
tp2341
sI5471
(F39.837433
F116.376722
tp2342
sI4704
(F39.845761
F116.393181
tp2343
sI737
(F39.861031
F116.391681
tp2344
sI4859
(F40.006521
F116.446107
tp2345
sI5604
(F39.838181
F116.383411
tp2346
sI6760
(F39.844916
F116.386358
tp2347
sI5097
(F39.843331
F116.375831
tp2348
sI10861
(F39.652571
F116.317781
tp2349
sI6259
(F39.84305556
F116.3991667
tp2350
sI5109
(F39.893621
F116.537241
tp2351
sI6134
(F39.848489
F116.382571
tp2352
sI12407
(F39.841101
F116.381001
tp2353
sI377
(F39.853692
F116.351364
tp2354
sI1914
(F39.856051
F116.288831
tp2355
sI7419
(F39.8592777777778
F116.462213888889
tp2356
sI6140
(F39.845265
F116.389756
tp2357
sI5757
(F39.845879
F116.380128
tp2358
sI10495
(F39.836711
F116.381231
tp2359
ssI12156
(dp2360
I4099
(F39.857371
F116.409321
tp2361
sI4102
(F39.874528
F116.485333
tp2362
sI2073
(F39.966841
F116.516221
tp2363
sI1052
(F39.830321
F116.450611
tp2364
sI31
(F39.773861
F116.485889
tp2365
sI1433
(F39.802541
F116.429231
tp2366
sI1884
(F39.834722
F116.373851
tp2367
sI44
(F39.858128
F116.375258
tp2368
sI939
(F39.769083
F116.495139
tp2369
sI7732
(F39.806076
F116.370067
tp2370
sI3127
(F39.740651
F116.349131
tp2371
sI1593
(F39.812001
F116.484101
tp2372
sI1596
(F39.82724
F116.45243
tp2373
sI2115
(F39.812051
F116.407591
tp2374
sI5189
(F39.829961
F116.422401
tp2375
sI6218
(F39.844301
F116.436944
tp2376
sI5710
(F39.852471
F116.421481
tp2377
sI440
(F39.756069
F116.330522
tp2378
sI1619
(F39.845451
F116.433971
tp2379
sI603
(F39.829903
F116.430501
tp2380
sI616
(F39.839401
F116.427201
tp2381
sI618
(F39.761281
F116.301361
tp2382
sI622
(F39.866448
F116.357566
tp2383
sI2163
(F39.851667
F116.446389
tp2384
sI5243
(F39.868491
F116.470961
tp2385
sI11900
(F39.924806
F116.444656
tp2386
sI1152
(F39.834081
F116.438421
tp2387
sI7300
(F39.860249
F116.462527
tp2388
sI2187
(F39.870694
F116.494778
tp2389
sI5773
(F39.839221
F116.437781
tp2390
sI4243
(F39.817541
F116.443001
tp2391
sI2710
(F39.824631
F116.389184
tp2392
sI1049
(F39.831556
F116.460501
tp2393
sI152
(F39.867501
F116.421944
tp2394
sI161
(F39.821229
F116.336041
tp2395
sI1186
(F39.854501
F116.400441
tp2396
sI1187
(F39.878169
F116.491533
tp2397
sI2213
(F39.838941
F116.372419
tp2398
sI4779
(F39.848171
F116.441121
tp2399
sI9391
(F39.823951
F116.291138
tp2400
sI1721
(F39.803669
F116.390075
tp2401
sI1723
(F39.837751
F116.477731
tp2402
sI3772
(F39.806701
F116.445301
tp2403
sI1727
(F39.803011
F116.399122
tp2404
sI4295
(F39.819501
F116.429833
tp2405
sI713
(F39.795001
F116.482222
tp2406
sI2762
(F39.855921
F116.417811
tp2407
sI3277
(F39.854251
F116.502431
tp2408
sI3279
(F39.84165
F116.46448
tp2409
sI3280
(F39.820769
F116.446664
tp2410
sI209
(F39.857944
F116.508972
tp2411
sI5842
(F39.799513
F116.473291
tp2412
sI3283
(F39.815221
F116.433811
tp2413
sI5347
(F39.810667
F116.441917
tp2414
sI12156
(F40.511417
F116.396222
tp2415
sI2288
(F39.820391
F116.450221
tp2416
sI1266
(F39.824821
F116.412501
tp2417
sI4799
(F39.842625
F116.451381
tp2418
sI3333
(F39.847221
F116.309911
tp2419
sI774
(F39.813611
F116.396111
tp2420
sI776
(F39.852601
F116.391531
tp2421
sI10505
(F39.839944
F116.442583
tp2422
sI1813
(F39.857431
F116.384495
tp2423
sI2840
(F39.811222
F116.434056
tp2424
sI4377
(F39.842139
F116.455278
tp2425
sI2842
(F39.804169
F116.420391
tp2426
sI3867
(F39.820361
F116.478281
tp2427
sI1820
(F39.869101
F116.348165
tp2428
sI5919
(F39.798531
F116.424481
tp2429
sI4384
(F39.854501
F116.436061
tp2430
sI1318
(F39.803694
F116.411306
tp2431
sI5418
(F39.866014
F116.334445
tp2432
sI3886
(F39.852413
F116.392677
tp2433
sI6459
(F39.833056
F116.418611
tp2434
sI556
(F39.861389
F116.504444
tp2435
sI3904
(F39.857611
F116.465251
tp2436
sI3397
(F39.829101
F116.497701
tp2437
sI1351
(F39.865001
F116.426111
tp2438
sI3916
(F39.929986
F116.482073
tp2439
sI1364
(F39.829541
F116.409531
tp2440
sI5974
(F39.845901
F116.458401
tp2441
sI2395
(F39.845111
F116.445471
tp2442
sI2396
(F39.839167
F116.437889
tp2443
sI3422
(F39.782917
F116.397444
tp2444
sI3953
(F39.741112
F116.338334
tp2445
sI6011
(F39.821944
F116.470001
tp2446
sI8572
(F39.858889
F116.438222
tp2447
sI1409
(F39.872653
F116.342251
tp2448
sI9096
(F40.245444
F116.995556
tp2449
sI1421
(F39.833611
F116.441111
tp2450
sI7063
(F39.833054
F116.441109
tp2451
sI1432
(F39.803722
F116.434611
tp2452
sI921
(F39.817601
F116.397001
tp2453
sI412
(F39.838056
F116.465833
tp2454
sI3496
(F39.866444
F116.541361
tp2455
sI3484
(F39.865631
F116.363271
tp2456
sI8619
(F39.865559
F116.488331
tp2457
sI3506
(F39.833801
F116.426194
tp2458
sI1464
(F39.801301
F116.431311
tp2459
sI4034
(F39.890053
F116.512126
tp2460
sI454
(F39.782889
F116.516001
tp2461
sI1993
(F39.883467
F116.525686
tp2462
sI6096
(F39.850635
F116.38547
tp2463
sI977
(F39.830611
F116.367531
tp2464
sI4057
(F39.844491
F116.440451
tp2465
sI1499
(F39.885214
F116.313139
tp2466
sI989
(F39.758736
F116.336154
tp2467
sI1003
(F39.855061
F116.181321
tp2468
sI4077
(F39.821944
F116.528333
tp2469
sI2032
(F39.810833
F116.450167
tp2470
sI5118
(F39.782301
F116.395221
tp2471
ssI12285
(dp2472
I1418
(F39.923121
F116.515441
tp2473
sI11787
(F40.005278
F116.223278
tp2474
sI12045
(F39.938245
F116.570841
tp2475
sI2062
(F39.917778
F116.555001
tp2476
sI7441
(F39.918611
F116.507181
tp2477
sI11038
(F39.916032
F116.529796
tp2478
sI6049
(F39.921181
F116.494821
tp2479
sI5796
(F39.918681
F116.507301
tp2480
sI5797
(F39.925291
F116.472391
tp2481
sI7724
(F39.910051
F116.514661
tp2482
sI7727
(F39.933961
F116.724013
tp2483
sI4144
(F39.916191
F116.528441
tp2484
sI7090
(F39.911641
F116.547851
tp2485
sI4915
(F39.914801
F116.469981
tp2486
sI9013
(F39.887901
F116.331001
tp2487
sI4656
(F39.916111
F116.525556
tp2488
sI3295
(F39.907611
F116.572151
tp2489
sI8384
(F39.857296
F116.078922
tp2490
sI1480
(F39.920071
F116.536031
tp2491
sI1481
(F39.976213
F116.573121
tp2492
sI10827
(F39.921471
F116.399411
tp2493
sI5708
(F39.865821
F116.488651
tp2494
sI3405
(F40.008061
F116.448869
tp2495
sI8525
(F40.129231
F117.106491
tp2496
sI4177
(F39.837781
F116.389081
tp2497
sI5603
(F39.912917
F116.518306
tp2498
sI3674
(F39.920111
F116.546667
tp2499
sI9438
(F39.926101
F116.528501
tp2500
sI8997
(F39.952309
F116.402426
tp2501
sI10208
(F39.905408
F116.445833
tp2502
sI11875
(F39.912101
F116.354001
tp2503
sI2788
(F39.948201
F116.542001
tp2504
sI4327
(F39.912491
F116.533221
tp2505
sI4328
(F39.915401
F116.556331
tp2506
sI4517
(F39.920889
F116.557278
tp2507
sI4330
(F40.039091
F116.305781
tp2508
sI4332
(F39.908941
F116.525101
tp2509
sI3309
(F39.918461
F116.523139
tp2510
sI3954
(F39.917275
F116.524194
tp2511
sI1397
(F39.909691
F116.591661
tp2512
sI7670
(F39.914001
F116.499361
tp2513
sI8524
(F39.892091
F116.392511
tp2514
sI12285
(F39.913461
F116.430731
tp2515
ssI12158
(dp2516
I3085
(F40.098652
F116.130066
tp2517
sI5139
(F40.078058
F116.152725
tp2518
sI2068
(F40.043123
F116.218014
tp2519
sI2069
(F40.039701
F116.200001
tp2520
sI4632
(F39.995278
F116.273889
tp2521
sI3122
(F40.081801
F116.168001
tp2522
sI6200
(F40.106386
F116.119271
tp2523
sI1603
(F40.081701
F116.191001
tp2524
sI1604
(F40.065194
F116.201139
tp2525
sI2629
(F40.042481
F116.204551
tp2526
sI2121
(F40.081071
F116.240201
tp2527
sI9485
(F40.161061
F116.549971
tp2528
sI102
(F40.079278
F116.102954
tp2529
sI103
(F40.088571
F116.111021
tp2530
sI1643
(F40.066493
F116.241867
tp2531
sI4204
(F40.075291
F116.132931
tp2532
sI4205
(F40.052301
F116.154001
tp2533
sI4628
(F40.036731
F116.242151
tp2534
sI1151
(F40.037001
F116.185501
tp2535
sI1644
(F40.065001
F116.231111
tp2536
sI11411
(F40.038038
F116.190827
tp2537
sI6341
(F40.063472
F116.158556
tp2538
sI1697
(F40.061011
F116.264311
tp2539
sI1698
(F40.053056
F116.250278
tp2540
sI4788
(F40.114071
F116.637861
tp2541
sI1216
(F40.089959
F116.270492
tp2542
sI1217
(F40.078389
F116.261944
tp2543
sI5316
(F40.029272
F116.227551
tp2544
sI11461
(F40.066431
F116.169211
tp2545
sI2778
(F40.038458
F116.213593
tp2546
sI2779
(F40.032111
F116.206026
tp2547
sI2790
(F40.006733
F116.251083
tp2548
sI237
(F40.022846
F116.275306
tp2549
sI247
(F40.000001
F116.000001
tp2550
sI6905
(F40.046791
F116.251171
tp2551
sI2810
(F40.002372
F116.279625
tp2552
sI3967
(F40.002081
F116.282341
tp2553
sI4860
(F40.025591
F116.217511
tp2554
sI2814
(F40.032436
F116.331467
tp2555
sI5385
(F40.078331
F116.220571
tp2556
sI5386
(F40.073481
F116.211711
tp2557
sI2827
(F40.074367
F116.257858
tp2558
sI2828
(F40.078886
F116.312458
tp2559
sI1293
(F40.073051
F116.279111
tp2560
sI4368
(F39.994133
F116.346576
tp2561
sI796
(F40.028664
F116.284981
tp2562
sI1309
(F40.081301
F116.274701
tp2563
sI9502
(F39.936511
F116.269111
tp2564
sI6431
(F40.029201
F116.228001
tp2565
sI1824
(F40.049391
F116.268251
tp2566
sI7969
(F40.031501
F116.263141
tp2567
sI806
(F39.848418
F116.577331
tp2568
sI1324
(F40.042194
F116.326251
tp2569
sI816
(F40.066425
F116.169212
tp2570
sI818
(F40.028801
F116.218321
tp2571
sI3384
(F40.022721
F116.280341
tp2572
sI3385
(F40.051851
F116.261961
tp2573
sI5087
(F40.059611
F116.212561
tp2574
sI5442
(F40.064132
F116.115347
tp2575
sI2376
(F40.050909
F116.319966
tp2576
sI1355
(F40.032311
F116.211751
tp2577
sI3408
(F40.019695
F116.218629
tp2578
sI3409
(F40.031449
F116.234356
tp2579
sI825
(F40.019289
F116.260156
tp2580
sI2937
(F40.021631
F116.279161
tp2581
sI12158
(F40.030711
F116.266121
tp2582
sI1941
(F40.033408
F116.270189
tp2583
sI2433
(F40.089194
F116.216528
tp2584
sI2434
(F40.048801
F116.231181
tp2585
sI2953
(F40.016501
F116.252601
tp2586
sI5012
(F40.026411
F116.240665
tp2587
sI8597
(F40.138279
F116.006556
tp2588
sI1944
(F40.033391
F116.270171
tp2589
sI2979
(F40.041421
F116.261224
tp2590
sI1445
(F40.139338
F116.135364
tp2591
sI2984
(F40.035221
F116.259864
tp2592
sI2986
(F40.050911
F116.128236
tp2593
sI3458
(F40.035001
F116.185331
tp2594
sI11697
(F40.073278
F116.167056
tp2595
sI2999
(F40.052301
F116.287101
tp2596
sI5049
(F40.115097
F116.122894
tp2597
sI9662
(F39.971093
F116.542993
tp2598
sI3011
(F40.001556
F116.270556
tp2599
sI964
(F39.996691
F116.290431
tp2600
sI464
(F40.075389
F116.293556
tp2601
sI479
(F40.085806
F116.249972
tp2602
sI5088
(F40.042681
F116.164221
tp2603
sI5089
(F39.990901
F116.172001
tp2604
sI2829
(F40.069722
F116.263889
tp2605
sI6143
(F40.038852
F116.248398
tp2606
ssI12287
(dp2607
I1282
(F39.927293
F116.593342
tp2608
sI3078
(F40.021639
F116.608861
tp2609
sI2674
(F39.927583
F116.585555
tp2610
sI4113
(F39.842722
F116.496278
tp2611
sI5010
(F39.930552
F116.559162
tp2612
sI1302
(F39.988361
F116.579601
tp2613
sI2456
(F39.969552
F116.534291
tp2614
sI4765
(F40.003333
F116.540556
tp2615
sI8350
(F39.952572
F116.573219
tp2616
sI2594
(F39.934931
F116.552591
tp2617
sI5670
(F39.915639
F116.528833
tp2618
sI6513
(F39.964201
F116.547001
tp2619
sI2675
(F39.933402
F116.582733
tp2620
sI7725
(F39.912881
F116.515341
tp2621
sI1967
(F39.964211
F116.547481
tp2622
sI1968
(F39.957481
F116.553231
tp2623
sI3571
(F40.030111
F116.605481
tp2624
sI11957
(F39.941907
F116.518528
tp2625
sI6586
(F39.994841
F116.451811
tp2626
sI2108
(F39.955551
F116.542221
tp2627
sI10943
(F39.906909
F116.351681
tp2628
sI2369
(F39.886944
F116.540833
tp2629
sI8003
(F39.962414
F116.313938
tp2630
sI1992
(F39.938141
F116.570931
tp2631
sI715
(F39.772139
F116.416501
tp2632
sI5455
(F39.965801
F116.560241
tp2633
sI4179
(F40.014821
F116.460431
tp2634
sI8407
(F40.136221
F116.562961
tp2635
sI6360
(F39.948341
F116.564981
tp2636
sI5084
(F39.922074
F116.545328
tp2637
sI4446
(F39.990511
F116.564791
tp2638
sI2019
(F39.978231
F116.516591
tp2639
sI1764
(F39.971271
F116.556041
tp2640
sI5606
(F39.908771
F116.544851
tp2641
sI3944
(F40.001971
F116.471091
tp2642
sI13161
(F39.909906
F116.587517
tp2643
sI2795
(F39.958101
F116.537201
tp2644
sI9839
(F39.914222
F116.542289
tp2645
sI10600
(F39.959444
F116.573056
tp2646
sI7794
(F39.968889
F116.569541
tp2647
sI7795
(F39.968561
F116.559961
tp2648
sI9972
(F39.927821
F116.600161
tp2649
sI5237
(F39.954394
F116.557811
tp2650
sI7913
(F39.965701
F116.561001
tp2651
sI1787
(F39.952222
F116.603056
tp2652
sI1788
(F39.948611
F116.578444
tp2653
sI1789
(F39.961971
F116.590171
tp2654
sI12287
(F39.975833
F116.358889
tp2655
ss.